ccopy_reg
_reconstructor
p1
(cmatplotlib.font_manager
FontManager
p2
c__builtin__
object
p3
NtRp4
(dp5
S'ttflist'
p6
(lp7
g1
(cmatplotlib.font_manager
FontEntry
p8
g3
NtRp9
(dp10
S'style'
p11
Vnormal
p12
sS'name'
p13
VBitstream Vera Sans Mono
p14
sS'weight'
p15
I400
sS'stretch'
p16
g12
sS'variant'
p17
g12
sS'fname'
p18
V/usr/local/lib/python2.7/site-packages/matplotlib/mpl-data/fonts/ttf/VeraMono.ttf
p19
sS'size'
p20
Vscalable
p21
sbag1
(g8
g3
NtRp22
(dp23
g11
g12
sg13
Vcmr10
p24
sg15
I400
sg16
g12
sg17
g12
sg18
V/usr/local/lib/python2.7/site-packages/matplotlib/mpl-data/fonts/ttf/cmr10.ttf
p25
sg20
g21
sbag1
(g8
g3
NtRp26
(dp27
g11
g12
sg13
VSTIXSizeFourSym
p28
sg15
I400
sg16
g12
sg17
g12
sg18
V/usr/local/lib/python2.7/site-packages/matplotlib/mpl-data/fonts/ttf/STIXSizFourSymReg.ttf
p29
sg20
g21
sbag1
(g8
g3
NtRp30
(dp31
g11
g12
sg13
VSTIXSizeTwoSym
p32
sg15
I400
sg16
g12
sg17
g12
sg18
V/usr/local/lib/python2.7/site-packages/matplotlib/mpl-data/fonts/ttf/STIXSizTwoSymReg.ttf
p33
sg20
g21
sbag1
(g8
g3
NtRp34
(dp35
g11
g12
sg13
VSTIXSizeThreeSym
p36
sg15
I700
sg16
g12
sg17
g12
sg18
V/usr/local/lib/python2.7/site-packages/matplotlib/mpl-data/fonts/ttf/STIXSizThreeSymBol.ttf
p37
sg20
g21
sbag1
(g8
g3
NtRp38
(dp39
g11
Vitalic
p40
sg13
VSTIXGeneral
p41
sg15
I700
sg16
g12
sg17
g12
sg18
V/usr/local/lib/python2.7/site-packages/matplotlib/mpl-data/fonts/ttf/STIXGeneralBolIta.ttf
p42
sg20
g21
sbag1
(g8
g3
NtRp43
(dp44
g11
Voblique
p45
sg13
VBitstream Vera Sans
p46
sg15
I700
sg16
g12
sg17
g12
sg18
V/usr/local/lib/python2.7/site-packages/matplotlib/mpl-data/fonts/ttf/VeraBI.ttf
p47
sg20
g21
sbag1
(g8
g3
NtRp48
(dp49
g11
g12
sg13
Vcmtt10
p50
sg15
I400
sg16
g12
sg17
g12
sg18
V/usr/local/lib/python2.7/site-packages/matplotlib/mpl-data/fonts/ttf/cmtt10.ttf
p51
sg20
g21
sbag1
(g8
g3
NtRp52
(dp53
g11
g12
sg13
VSTIXSizeTwoSym
p54
sg15
I700
sg16
g12
sg17
g12
sg18
V/usr/local/lib/python2.7/site-packages/matplotlib/mpl-data/fonts/ttf/STIXSizTwoSymBol.ttf
p55
sg20
g21
sbag1
(g8
g3
NtRp56
(dp57
g11
g12
sg13
VSTIXGeneral
p58
sg15
I400
sg16
g12
sg17
g12
sg18
V/usr/local/lib/python2.7/site-packages/matplotlib/mpl-data/fonts/ttf/STIXGeneral.ttf
p59
sg20
g21
sbag1
(g8
g3
NtRp60
(dp61
g11
g12
sg13
Vcmmi10
p62
sg15
I400
sg16
g12
sg17
g12
sg18
V/usr/local/lib/python2.7/site-packages/matplotlib/mpl-data/fonts/ttf/cmmi10.ttf
p63
sg20
g21
sbag1
(g8
g3
NtRp64
(dp65
g11
g12
sg13
VSTIXSizeOneSym
p66
sg15
I700
sg16
g12
sg17
g12
sg18
V/usr/local/lib/python2.7/site-packages/matplotlib/mpl-data/fonts/ttf/STIXSizOneSymBol.ttf
p67
sg20
g21
sbag1
(g8
g3
NtRp68
(dp69
g11
g12
sg13
Vcmb10
p70
sg15
I400
sg16
g12
sg17
g12
sg18
V/usr/local/lib/python2.7/site-packages/matplotlib/mpl-data/fonts/ttf/cmb10.ttf
p71
sg20
g21
sbag1
(g8
g3
NtRp72
(dp73
g11
g12
sg13
VSTIXSizeThreeSym
p74
sg15
I400
sg16
g12
sg17
g12
sg18
V/usr/local/lib/python2.7/site-packages/matplotlib/mpl-data/fonts/ttf/STIXSizThreeSymReg.ttf
p75
sg20
g21
sbag1
(g8
g3
NtRp76
(dp77
g11
g12
sg13
VSTIXSizeFiveSym
p78
sg15
I400
sg16
g12
sg17
g12
sg18
V/usr/local/lib/python2.7/site-packages/matplotlib/mpl-data/fonts/ttf/STIXSizFiveSymReg.ttf
p79
sg20
g21
sbag1
(g8
g3
NtRp80
(dp81
g11
g40
sg13
VSTIXGeneral
p82
sg15
I400
sg16
g12
sg17
g12
sg18
V/usr/local/lib/python2.7/site-packages/matplotlib/mpl-data/fonts/ttf/STIXGeneralItalic.ttf
p83
sg20
g21
sbag1
(g8
g3
NtRp84
(dp85
g11
g12
sg13
VBitstream Vera Sans
p86
sg15
I700
sg16
g12
sg17
g12
sg18
V/usr/local/lib/python2.7/site-packages/matplotlib/mpl-data/fonts/ttf/VeraBd.ttf
p87
sg20
g21
sbag1
(g8
g3
NtRp88
(dp89
g11
g12
sg13
Vcmss10
p90
sg15
I400
sg16
g12
sg17
g12
sg18
V/usr/local/lib/python2.7/site-packages/matplotlib/mpl-data/fonts/ttf/cmss10.ttf
p91
sg20
g21
sbag1
(g8
g3
NtRp92
(dp93
g11
g12
sg13
VBitstream Vera Serif
p94
sg15
I700
sg16
g12
sg17
g12
sg18
V/usr/local/lib/python2.7/site-packages/matplotlib/mpl-data/fonts/ttf/VeraSeBd.ttf
p95
sg20
g21
sbag1
(g8
g3
NtRp96
(dp97
g11
g45
sg13
VBitstream Vera Sans Mono
p98
sg15
I700
sg16
g12
sg17
g12
sg18
V/usr/local/lib/python2.7/site-packages/matplotlib/mpl-data/fonts/ttf/VeraMoBI.ttf
p99
sg20
g21
sbag1
(g8
g3
NtRp100
(dp101
g11
g12
sg13
VBitstream Vera Sans Mono
p102
sg15
I700
sg16
g12
sg17
g12
sg18
V/usr/local/lib/python2.7/site-packages/matplotlib/mpl-data/fonts/ttf/VeraMoBd.ttf
p103
sg20
g21
sbag1
(g8
g3
NtRp104
(dp105
g11
g45
sg13
VBitstream Vera Sans Mono
p106
sg15
I400
sg16
g12
sg17
g12
sg18
V/usr/local/lib/python2.7/site-packages/matplotlib/mpl-data/fonts/ttf/VeraMoIt.ttf
p107
sg20
g21
sbag1
(g8
g3
NtRp108
(dp109
g11
g12
sg13
VBitstream Vera Sans
p110
sg15
I400
sg16
g12
sg17
g12
sg18
V/usr/local/lib/python2.7/site-packages/matplotlib/mpl-data/fonts/ttf/Vera.ttf
p111
sg20
g21
sbag1
(g8
g3
NtRp112
(dp113
g11
g40
sg13
VSTIXNonUnicode
p114
sg15
I700
sg16
g12
sg17
g12
sg18
V/usr/local/lib/python2.7/site-packages/matplotlib/mpl-data/fonts/ttf/STIXNonUniBolIta.ttf
p115
sg20
g21
sbag1
(g8
g3
NtRp116
(dp117
g11
g12
sg13
VSTIXNonUnicode
p118
sg15
I700
sg16
g12
sg17
g12
sg18
V/usr/local/lib/python2.7/site-packages/matplotlib/mpl-data/fonts/ttf/STIXNonUniBol.ttf
p119
sg20
g21
sbag1
(g8
g3
NtRp120
(dp121
g11
g12
sg13
VSTIXSizeOneSym
p122
sg15
I400
sg16
g12
sg17
g12
sg18
V/usr/local/lib/python2.7/site-packages/matplotlib/mpl-data/fonts/ttf/STIXSizOneSymReg.ttf
p123
sg20
g21
sbag1
(g8
g3
NtRp124
(dp125
g11
g12
sg13
VSTIXGeneral
p126
sg15
I700
sg16
g12
sg17
g12
sg18
V/usr/local/lib/python2.7/site-packages/matplotlib/mpl-data/fonts/ttf/STIXGeneralBol.ttf
p127
sg20
g21
sbag1
(g8
g3
NtRp128
(dp129
g11
g45
sg13
VBitstream Vera Sans
p130
sg15
I400
sg16
g12
sg17
g12
sg18
V/usr/local/lib/python2.7/site-packages/matplotlib/mpl-data/fonts/ttf/VeraIt.ttf
p131
sg20
g21
sbag1
(g8
g3
NtRp132
(dp133
g11
g12
sg13
VSTIXNonUnicode
p134
sg15
I400
sg16
g12
sg17
g12
sg18
V/usr/local/lib/python2.7/site-packages/matplotlib/mpl-data/fonts/ttf/STIXNonUni.ttf
p135
sg20
g21
sbag1
(g8
g3
NtRp136
(dp137
g11
g12
sg13
Vcmex10
p138
sg15
I400
sg16
g12
sg17
g12
sg18
V/usr/local/lib/python2.7/site-packages/matplotlib/mpl-data/fonts/ttf/cmex10.ttf
p139
sg20
g21
sbag1
(g8
g3
NtRp140
(dp141
g11
g12
sg13
Vcmsy10
p142
sg15
I400
sg16
g12
sg17
g12
sg18
V/usr/local/lib/python2.7/site-packages/matplotlib/mpl-data/fonts/ttf/cmsy10.ttf
p143
sg20
g21
sbag1
(g8
g3
NtRp144
(dp145
g11
g40
sg13
VSTIXNonUnicode
p146
sg15
I400
sg16
g12
sg17
g12
sg18
V/usr/local/lib/python2.7/site-packages/matplotlib/mpl-data/fonts/ttf/STIXNonUniIta.ttf
p147
sg20
g21
sbag1
(g8
g3
NtRp148
(dp149
g11
g12
sg13
VSTIXSizeFourSym
p150
sg15
I700
sg16
g12
sg17
g12
sg18
V/usr/local/lib/python2.7/site-packages/matplotlib/mpl-data/fonts/ttf/STIXSizFourSymBol.ttf
p151
sg20
g21
sbag1
(g8
g3
NtRp152
(dp153
g11
g12
sg13
VBitstream Vera Serif
p154
sg15
I400
sg16
g12
sg17
g12
sg18
V/usr/local/lib/python2.7/site-packages/matplotlib/mpl-data/fonts/ttf/VeraSe.ttf
p155
sg20
g21
sbag1
(g8
g3
NtRp156
(dp157
g11
g40
sg13
VTrebuchet MS
p158
sg15
I400
sg16
g12
sg17
g12
sg18
V/Library/Fonts/Trebuchet MS Italic.ttf
p159
sg20
g21
sbag1
(g8
g3
NtRp160
(dp161
g11
g12
sg13
VTimes New Roman
p162
sg15
I500
sg16
g12
sg17
g12
sg18
V/Library/Fonts/Times New Roman.ttf
p163
sg20
g21
sbag1
(g8
g3
NtRp164
(dp165
g11
g12
sg13
VMeslo LG S for Powerline PNFT P
p166
sg15
I400
sg16
g12
sg17
g12
sg18
V/Users/nirum/Library/Fonts/Meslo LG S Regular for Powerline Plus Nerd File Types Plus Pomicons Windows Compatible.otf
p167
sg20
g21
sbag1
(g8
g3
NtRp168
(dp169
g11
g12
sg13
VOsaka
p170
sg15
I400
sg16
g12
sg17
g12
sg18
V/Library/Fonts/Osaka.ttf
p171
sg20
g21
sbag1
(g8
g3
NtRp172
(dp173
g11
g12
sg13
Vmonofur for Powerline PNFT Mono
p174
sg15
I700
sg16
g12
sg17
g12
sg18
V/Users/nirum/Library/Fonts/monofur   bold for Powerline Plus Nerd File Types Mono Plus Pomicons Windows Compatible.ttf
p175
sg20
g21
sbag1
(g8
g3
NtRp176
(dp177
g11
g12
sg13
VDroid Sans Mono for Powerline Plus Nerd File Types Mono
p178
sg15
I400
sg16
g12
sg17
g12
sg18
V/Users/nirum/Library/Fonts/Droid Sans Mono for Powerline Plus Nerd File Types Mono.otf
p179
sg20
g21
sbag1
(g8
g3
NtRp180
(dp181
g11
g12
sg13
VIBM 3270 Narrow PNFT Plus Pomic
p182
sg15
I400
sg16
Vcondensed
p183
sg17
g12
sg18
V/Users/nirum/Library/Fonts/3270 Narrow Plus Nerd File Types Plus Pomicons Windows Compatible.otf
p184
sg20
g21
sbag1
(g8
g3
NtRp185
(dp186
g11
g12
sg13
VHeavy Data PNFT Mono Plus Pomic
p187
sg15
I800
sg16
g12
sg17
g12
sg18
V/Users/nirum/Library/Fonts/Heavy Data Plus Nerd File Types Mono Plus Pomicons Windows Compatible.ttf
p188
sg20
g21
sbag1
(g8
g3
NtRp189
(dp190
g11
g12
sg13
VEstrangelo Talada
p191
sg15
I400
sg16
g12
sg17
g12
sg18
V/usr/X11/lib/X11/fonts/OTF/SyrCOMTalada.otf
p192
sg20
g21
sbag1
(g8
g3
NtRp193
(dp194
g11
g12
sg13
VLiSong Pro
p195
sg15
I400
sg16
g12
sg17
g12
sg18
V/Library/Fonts/\u5137\u5b8b Pro.ttf
p196
sg20
g21
sbag1
(g8
g3
NtRp197
(dp198
g11
g12
sg13
VFira Mono Medium for Powerline Plus Nerd File Types Plus Pomicons
p199
sg15
I500
sg16
g12
sg17
g12
sg18
V/Users/nirum/Library/Fonts/Fira Mono Medium for Powerline Plus Nerd File Types Plus Pomicons.otf
p200
sg20
g21
sbag1
(g8
g3
NtRp201
(dp202
g11
g12
sg13
VLiteration Mono Powerline Plus Nerd File Types Mono Plus Pomicons
p203
sg15
I400
sg16
g12
sg17
g12
sg18
V/Users/nirum/Library/Fonts/Literation Mono Powerline Plus Nerd File Types Mono Plus Pomicons.ttf
p204
sg20
g21
sbag1
(g8
g3
NtRp205
(dp206
g11
g12
sg13
VUbuntu Mono Plus Nerd File Types Mono Plus Pomicons
p207
sg15
I400
sg16
g12
sg17
g12
sg18
V/Users/nirum/Library/Fonts/Ubuntu Mono Plus Nerd File Types Mono Plus Pomicons.ttf
p208
sg20
g21
sbag1
(g8
g3
NtRp209
(dp210
g11
g12
sg13
VFira Mono for Powerline PNFT Mo
p211
sg15
I400
sg16
g12
sg17
g12
sg18
V/Users/nirum/Library/Fonts/Fira Mono Regular for Powerline Plus Nerd File Types Mono Plus Pomicons Windows Compatible.otf
p212
sg20
g21
sbag1
(g8
g3
NtRp213
(dp214
g11
g12
sg13
VUbuntu Mono derivative Powerlin
p215
sg15
I400
sg16
g12
sg17
g12
sg18
V/Users/nirum/Library/Fonts/Ubuntu Mono derivative Powerline Plus Nerd File Types Windows Compatible.ttf
p216
sg20
g21
sbag1
(g8
g3
NtRp217
(dp218
g11
g12
sg13
VM+ 1m Plus Nerd File Types Mono Plus Pomicons
p219
sg15
I400
sg16
g12
sg17
g12
sg18
V/Users/nirum/Library/Fonts/M+ 1m regular Plus Nerd File Types Mono Plus Pomicons.ttf
p220
sg20
g21
sbag1
(g8
g3
NtRp221
(dp222
g11
g12
sg13
VAppleMyungjo
p223
sg15
I400
sg16
g12
sg17
g12
sg18
V/Library/Fonts/AppleMyungjo.ttf
p224
sg20
g21
sbag1
(g8
g3
NtRp225
(dp226
g11
g12
sg13
VMishafi Gold
p227
sg15
I400
sg16
g12
sg17
g12
sg18
V/Library/Fonts/Mishafi Gold.ttf
p228
sg20
g21
sbag1
(g8
g3
NtRp229
(dp230
g11
g45
sg13
VBitstream Vera Sans Mono Plus Nerd File Types Mono
p231
sg15
I400
sg16
g12
sg17
g12
sg18
V/Users/nirum/Library/Fonts/Bitstream Vera Sans Mono Oblique Plus Nerd File Types Mono.ttf
p232
sg20
g21
sbag1
(g8
g3
NtRp233
(dp234
g11
g12
sg13
VM+ 1m PNFT
p235
sg15
I400
sg16
g12
sg17
g12
sg18
V/Users/nirum/Library/Fonts/M+ 1m regular Plus Nerd File Types Windows Compatible.ttf
p236
sg20
g21
sbag1
(g8
g3
NtRp237
(dp238
g11
g12
sg13
VMeslo LG S for Powerline Plus Nerd File Types Plus Pomicons
p239
sg15
I400
sg16
g12
sg17
g12
sg18
V/Users/nirum/Library/Fonts/Meslo LG S Regular for Powerline Plus Nerd File Types Plus Pomicons.otf
p240
sg20
g21
sbag1
(g8
g3
NtRp241
(dp242
g11
g12
sg13
VDejaVu Sans Mono for Powerline 
p243
sg15
I400
sg16
g12
sg17
g12
sg18
V/Users/nirum/Library/Fonts/DejaVu Sans Mono for Powerline Plus Nerd File Types Mono Plus Pomicons Windows Compatible.ttf
p244
sg20
g21
sbag1
(g8
g3
NtRp245
(dp246
g11
g12
sg13
VFira Mono for Powerline Plus Nerd File Types Mono
p247
sg15
I700
sg16
g12
sg17
g12
sg18
V/Users/nirum/Library/Fonts/Fira Mono Bold for Powerline Plus Nerd File Types Mono.otf
p248
sg20
g21
sbag1
(g8
g3
NtRp249
(dp250
g11
g12
sg13
VSTIXSizeThreeSym
p251
sg15
I700
sg16
g12
sg17
g12
sg18
V/Library/Fonts/STIXSizThreeSymBol.otf
p252
sg20
g21
sbag1
(g8
g3
NtRp253
(dp254
g11
g12
sg13
Vmonofur for Powerline Plus Nerd File Types Mono Plus Pomicons
p255
sg15
I700
sg16
g12
sg17
g12
sg18
V/Users/nirum/Library/Fonts/monofur   bold for Powerline Plus Nerd File Types Mono Plus Pomicons.ttf
p256
sg20
g21
sbag1
(g8
g3
NtRp257
(dp258
g11
g12
sg13
VLekton Plus Nerd File Types Mono
p259
sg15
I400
sg16
g12
sg17
g12
sg18
V/Users/nirum/Library/Fonts/Lekton Plus Nerd File Types Mono.ttf
p260
sg20
g21
sbag1
(g8
g3
NtRp261
(dp262
g11
g12
sg13
VM+ 1m PNFT Mono Plus Pomicons
p263
sg15
I400
sg16
g12
sg17
g12
sg18
V/Users/nirum/Library/Fonts/M+ 1m thin Plus Nerd File Types Mono Plus Pomicons Windows Compatible.ttf
p264
sg20
g21
sbag1
(g8
g3
NtRp265
(dp266
g11
g12
sg13
VMeslo LG S DZ for Powerline Plus Nerd File Types
p267
sg15
I400
sg16
g12
sg17
g12
sg18
V/Users/nirum/Library/Fonts/Meslo LG S DZ Regular for Powerline Plus Nerd File Types.otf
p268
sg20
g21
sbag1
(g8
g3
NtRp269
(dp270
g11
g12
sg13
VEast Syriac Ctesiphon
p271
sg15
I400
sg16
g12
sg17
g12
sg18
V/usr/X11/lib/X11/fonts/OTF/SyrCOMCtesiphon.otf
p272
sg20
g21
sbag1
(g8
g3
NtRp273
(dp274
g11
g12
sg13
VM+ 1m Plus Nerd File Types
p275
sg15
I700
sg16
g12
sg17
g12
sg18
V/Users/nirum/Library/Fonts/M+ 1m bold Plus Nerd File Types.ttf
p276
sg20
g21
sbag1
(g8
g3
NtRp277
(dp278
g11
g12
sg13
VLekton Plus Nerd File Types
p279
sg15
I700
sg16
g12
sg17
g12
sg18
V/Users/nirum/Library/Fonts/Lekton-Bold Plus Nerd File Types.ttf
p280
sg20
g21
sbag1
(g8
g3
NtRp281
(dp282
g11
g12
sg13
VAnonymice Powerline Plus Nerd File Types Plus Pomicons
p283
sg15
I400
sg16
g12
sg17
g12
sg18
V/Users/nirum/Library/Fonts/Anonymice Powerline Plus Nerd File Types Plus Pomicons.ttf
p284
sg20
g21
sbag1
(g8
g3
NtRp285
(dp286
g11
g12
sg13
VUbuntu Mono derivative Powerlin
p287
sg15
I400
sg16
g12
sg17
g12
sg18
V/Users/nirum/Library/Fonts/Ubuntu Mono derivative Powerline Plus Nerd File Types Mono Plus Pomicons Windows Compatible.ttf
p288
sg20
g21
sbag1
(g8
g3
NtRp289
(dp290
g11
g12
sg13
VSystem Font
p291
sg15
I400
sg16
g12
sg17
g12
sg18
V/System/Library/Fonts/SFNSText-Medium.otf
p292
sg20
g21
sbag1
(g8
g3
NtRp293
(dp294
g11
g12
sg13
VMeslo LG M for Powerline PNFT M
p295
sg15
I400
sg16
g12
sg17
g12
sg18
V/Users/nirum/Library/Fonts/Meslo LG M Regular for Powerline Plus Nerd File Types Mono Windows Compatible.otf
p296
sg20
g21
sbag1
(g8
g3
NtRp297
(dp298
g11
g12
sg13
VLiteration Mono Powerline Plus Nerd File Types
p299
sg15
I400
sg16
g12
sg17
g12
sg18
V/Users/nirum/Library/Fonts/Literation Mono Powerline Plus Nerd File Types.ttf
p300
sg20
g21
sbag1
(g8
g3
NtRp301
(dp302
g11
g12
sg13
VM+ 1m Plus Nerd File Types Plus Pomicons
p303
sg15
I200
sg16
g12
sg17
g12
sg18
V/Users/nirum/Library/Fonts/M+ 1m light Plus Nerd File Types Plus Pomicons.ttf
p304
sg20
g21
sbag1
(g8
g3
NtRp305
(dp306
g11
g45
sg13
VBitstream Vera Sans Mono Plus Nerd File Types Plus Pomicons
p307
sg15
I700
sg16
g12
sg17
g12
sg18
V/Users/nirum/Library/Fonts/Bitstream Vera Sans Mono Bold Oblique Plus Nerd File Types Plus Pomicons.ttf
p308
sg20
g21
sbag1
(g8
g3
NtRp309
(dp310
g11
g12
sg13
VM+ 1m PNFT Plus Pomicons
p311
sg15
I400
sg16
g12
sg17
g12
sg18
V/Users/nirum/Library/Fonts/M+ 1m thin Plus Nerd File Types Plus Pomicons Windows Compatible.ttf
p312
sg20
g21
sbag1
(g8
g3
NtRp313
(dp314
g11
g12
sg13
VSTHeiti
p315
sg15
I400
sg16
g12
sg17
g12
sg18
V/Library/Fonts/\u534e\u6587\u7ec6\u9ed1.ttf
p316
sg20
g21
sbag1
(g8
g3
NtRp317
(dp318
g11
g40
sg13
Vmonofur for Powerline PNFT Mono
p319
sg15
I400
sg16
g12
sg17
g12
sg18
V/Users/nirum/Library/Fonts/monofur   italic for Powerline Plus Nerd File Types Mono Plus Pomicons Windows Compatible.ttf
p320
sg20
g21
sbag1
(g8
g3
NtRp321
(dp322
g11
g12
sg13
VMeslo LG L for Powerline PNFT
p323
sg15
I400
sg16
g12
sg17
g12
sg18
V/Users/nirum/Library/Fonts/Meslo LG L Regular for Powerline Plus Nerd File Types Windows Compatible.otf
p324
sg20
g21
sbag1
(g8
g3
NtRp325
(dp326
g11
g12
sg13
VLekton Plus Nerd File Types Mono
p327
sg15
I700
sg16
g12
sg17
g12
sg18
V/Users/nirum/Library/Fonts/Lekton-Bold Plus Nerd File Types Mono.ttf
p328
sg20
g21
sbag1
(g8
g3
NtRp329
(dp330
g11
g12
sg13
VM+ 1m Plus Nerd File Types Mono
p331
sg15
I400
sg16
g12
sg17
g12
sg18
V/Users/nirum/Library/Fonts/M+ 1m thin Plus Nerd File Types Mono.ttf
p332
sg20
g21
sbag1
(g8
g3
NtRp333
(dp334
g11
g12
sg13
VM+ 1m Plus Nerd File Types Mono
p335
sg15
I700
sg16
g12
sg17
g12
sg18
V/Users/nirum/Library/Fonts/M+ 1m bold Plus Nerd File Types Mono.ttf
p336
sg20
g21
sbag1
(g8
g3
NtRp337
(dp338
g11
g12
sg13
VMeslo LG L for Powerline Plus Nerd File Types Plus Pomicons
p339
sg15
I400
sg16
g12
sg17
g12
sg18
V/Users/nirum/Library/Fonts/Meslo LG L Regular for Powerline Plus Nerd File Types Plus Pomicons.otf
p340
sg20
g21
sbag1
(g8
g3
NtRp341
(dp342
g11
g40
sg13
VArial
p343
sg15
I700
sg16
g12
sg17
g12
sg18
V/Library/Fonts/Arial Bold Italic.ttf
p344
sg20
g21
sbag1
(g8
g3
NtRp345
(dp346
g11
g12
sg13
VSignPainter
p347
sg15
I400
sg16
g12
sg17
g12
sg18
V/Library/Fonts/SignPainter.otf
p348
sg20
g21
sbag1
(g8
g3
NtRp349
(dp350
g11
g12
sg13
VMeslo LG M for Powerline PNFT P
p351
sg15
I400
sg16
g12
sg17
g12
sg18
V/Users/nirum/Library/Fonts/Meslo LG M Regular for Powerline Plus Nerd File Types Plus Pomicons Windows Compatible.otf
p352
sg20
g21
sbag1
(g8
g3
NtRp353
(dp354
g11
g12
sg13
VUbuntu Mono derivative Powerlin
p355
sg15
I400
sg16
g12
sg17
g12
sg18
V/Users/nirum/Library/Fonts/Ubuntu Mono derivative Powerline Plus Nerd File Types Mono Windows Compatible.ttf
p356
sg20
g21
sbag1
(g8
g3
NtRp357
(dp358
g11
g12
sg13
VSystem Font
p359
sg15
I400
sg16
g12
sg17
g12
sg18
V/System/Library/Fonts/SFNSText-RegularG2.otf
p360
sg20
g21
sbag1
(g8
g3
NtRp361
(dp362
g11
g45
sg13
VDejaVu Sans Mono for Powerline 
p363
sg15
I700
sg16
g12
sg17
g12
sg18
V/Users/nirum/Library/Fonts/DejaVu Sans Mono Bold Oblique for Powerline Plus Nerd File Types Mono Plus Pomicons Windows Compatible.ttf
p364
sg20
g21
sbag1
(g8
g3
NtRp365
(dp366
g11
g12
sg13
VMeslo LG M for Powerline PNFT
p367
sg15
I400
sg16
g12
sg17
g12
sg18
V/Users/nirum/Library/Fonts/Meslo LG M Regular for Powerline Plus Nerd File Types Windows Compatible.otf
p368
sg20
g21
sbag1
(g8
g3
NtRp369
(dp370
g11
g12
sg13
VSTIXIntegralsUp
p371
sg15
I700
sg16
g12
sg17
g12
sg18
V/Library/Fonts/STIXIntUpBol.otf
p372
sg20
g21
sbag1
(g8
g3
NtRp373
(dp374
g11
g12
sg13
VBitstream Vera Sans Mono PNFT M
p375
sg15
I700
sg16
g12
sg17
g12
sg18
V/Users/nirum/Library/Fonts/Bitstream Vera Sans Mono Bold Plus Nerd File Types Mono Plus Pomicons Windows Compatible.ttf
p376
sg20
g21
sbag1
(g8
g3
NtRp377
(dp378
g11
g12
sg13
VDejaVu Sans Mono for Powerline 
p379
sg15
I700
sg16
g12
sg17
g12
sg18
V/Users/nirum/Library/Fonts/DejaVu Sans Mono Bold for Powerline Plus Nerd File Types Mono Plus Pomicons Windows Compatible.ttf
p380
sg20
g21
sbag1
(g8
g3
NtRp381
(dp382
g11
g12
sg13
VSTHeiti
p383
sg15
I400
sg16
g12
sg17
g12
sg18
V/Library/Fonts/\u534e\u6587\u9ed1\u4f53.ttf
p384
sg20
g21
sbag1
(g8
g3
NtRp385
(dp386
g11
g12
sg13
VProggyCleanTT CE PNFT Plus Pomi
p387
sg15
I400
sg16
g12
sg17
g12
sg18
V/Users/nirum/Library/Fonts/ProggyCleanTT CE Plus Nerd File Types Plus Pomicons Windows Compatible.ttf
p388
sg20
g21
sbag1
(g8
g3
NtRp389
(dp390
g11
g12
sg13
VSTIXSizeFiveSym
p391
sg15
I400
sg16
g12
sg17
g12
sg18
V/Library/Fonts/STIXSizFiveSymReg.otf
p392
sg20
g21
sbag1
(g8
g3
NtRp393
(dp394
g11
g45
sg13
VDejaVu Sans Mono for Powerline 
p395
sg15
I700
sg16
g12
sg17
g12
sg18
V/Users/nirum/Library/Fonts/DejaVu Sans Mono Bold Oblique for Powerline Plus Nerd File Types Plus Pomicons Windows Compatible.ttf
p396
sg20
g21
sbag1
(g8
g3
NtRp397
(dp398
g11
g12
sg13
VBitstream Vera Sans Mono PNFT M
p399
sg15
I400
sg16
g12
sg17
g12
sg18
V/Users/nirum/Library/Fonts/Bitstream Vera Sans Mono Plus Nerd File Types Mono Plus Pomicons Windows Compatible.ttf
p400
sg20
g21
sbag1
(g8
g3
NtRp401
(dp402
g11
g12
sg13
VM+ 1m PNFT Mono
p403
sg15
I400
sg16
g12
sg17
g12
sg18
V/Users/nirum/Library/Fonts/M+ 1m regular Plus Nerd File Types Mono Windows Compatible.ttf
p404
sg20
g21
sbag1
(g8
g3
NtRp405
(dp406
g11
g12
sg13
VSerto Urhoy
p407
sg15
I700
sg16
g12
sg17
g12
sg18
V/usr/X11/lib/X11/fonts/OTF/SyrCOMUrhoyBold.otf
p408
sg20
g21
sbag1
(g8
g3
NtRp409
(dp410
g11
g12
sg13
VGurmukhi MT
p411
sg15
I400
sg16
g12
sg17
g12
sg18
V/Library/Fonts/Gurmukhi.ttf
p412
sg20
g21
sbag1
(g8
g3
NtRp413
(dp414
g11
g12
sg13
VYuGothic
p415
sg15
I700
sg16
g12
sg17
g12
sg18
V/Library/Fonts/Yu Gothic Bold.otf
p416
sg20
g21
sbag1
(g8
g3
NtRp417
(dp418
g11
g12
sg13
VInconsolata for Powerline Plus Nerd File Types
p419
sg15
I400
sg16
g12
sg17
g12
sg18
V/Users/nirum/Library/Fonts/Inconsolata for Powerline Plus Nerd File Types.otf
p420
sg20
g21
sbag1
(g8
g3
NtRp421
(dp422
g11
g12
sg13
V.Keyboard
p423
sg15
I400
sg16
g12
sg17
g12
sg18
V/System/Library/Fonts/Keyboard.ttf
p424
sg20
g21
sbag1
(g8
g3
NtRp425
(dp426
g11
g12
sg13
VEast Syriac Adiabene
p427
sg15
I400
sg16
g12
sg17
g12
sg18
V/usr/X11/lib/X11/fonts/OTF/SyrCOMAdiabene.otf
p428
sg20
g21
sbag1
(g8
g3
NtRp429
(dp430
g11
g12
sg13
VInconsolata for Powerline Plus Nerd File Types Mono
p431
sg15
I400
sg16
g12
sg17
g12
sg18
V/Users/nirum/Library/Fonts/Inconsolata for Powerline Plus Nerd File Types Mono.otf
p432
sg20
g21
sbag1
(g8
g3
NtRp433
(dp434
g11
g12
sg13
VSystem Font
p435
sg15
I400
sg16
g12
sg17
g12
sg18
V/System/Library/Fonts/SFNSDisplay-Light.otf
p436
sg20
g21
sbag1
(g8
g3
NtRp437
(dp438
g11
g12
sg13
VHeavy Data PNFT
p439
sg15
I800
sg16
g12
sg17
g12
sg18
V/Users/nirum/Library/Fonts/Heavy Data Plus Nerd File Types Windows Compatible.ttf
p440
sg20
g21
sbag1
(g8
g3
NtRp441
(dp442
g11
g12
sg13
VMeslo LG S for Powerline PNFT M
p443
sg15
I400
sg16
g12
sg17
g12
sg18
V/Users/nirum/Library/Fonts/Meslo LG S Regular for Powerline Plus Nerd File Types Mono Plus Pomicons Windows Compatible.otf
p444
sg20
g21
sbag1
(g8
g3
NtRp445
(dp446
g11
g12
sg13
VDroid Sans Mono for Powerline P
p447
sg15
I400
sg16
g12
sg17
g12
sg18
V/Users/nirum/Library/Fonts/Droid Sans Mono for Powerline Plus Nerd File Types Mono Windows Compatible.otf
p448
sg20
g21
sbag1
(g8
g3
NtRp449
(dp450
g11
g12
sg13
VFira Mono for Powerline PNFT Pl
p451
sg15
I700
sg16
g12
sg17
g12
sg18
V/Users/nirum/Library/Fonts/Fira Mono Bold for Powerline Plus Nerd File Types Plus Pomicons Windows Compatible.otf
p452
sg20
g21
sbag1
(g8
g3
NtRp453
(dp454
g11
g12
sg13
VUbuntu Mono PNFT Mono Plus Pomi
p455
sg15
I400
sg16
g12
sg17
g12
sg18
V/Users/nirum/Library/Fonts/Ubuntu Mono Plus Nerd File Types Mono Plus Pomicons Windows Compatible.ttf
p456
sg20
g21
sbag1
(g8
g3
NtRp457
(dp458
g11
g12
sg13
VMeslo LG M DZ for Powerline PNF
p459
sg15
I400
sg16
g12
sg17
g12
sg18
V/Users/nirum/Library/Fonts/Meslo LG M DZ Regular for Powerline Plus Nerd File Types Mono Plus Pomicons Windows Compatible.otf
p460
sg20
g21
sbag1
(g8
g3
NtRp461
(dp462
g11
g12
sg13
VIBM 3270 Plus Nerd File Types
p463
sg15
I500
sg16
g12
sg17
g12
sg18
V/Users/nirum/Library/Fonts/3270-Medium Plus Nerd File Types.otf
p464
sg20
g21
sbag1
(g8
g3
NtRp465
(dp466
g11
g12
sg13
VProggyCleanTT PNFT Plus Pomicon
p467
sg15
I400
sg16
g12
sg17
g12
sg18
V/Users/nirum/Library/Fonts/ProggyCleanTT Plus Nerd File Types Plus Pomicons Windows Compatible.ttf
p468
sg20
g21
sbag1
(g8
g3
NtRp469
(dp470
g11
g12
sg13
VIBM 3270 Narrow Plus Nerd File Types
p471
sg15
I400
sg16
g183
sg17
g12
sg18
V/Users/nirum/Library/Fonts/3270 Narrow Plus Nerd File Types.otf
p472
sg20
g21
sbag1
(g8
g3
NtRp473
(dp474
g11
g12
sg13
VProggyCleanTT CE PNFT
p475
sg15
I400
sg16
g12
sg17
g12
sg18
V/Users/nirum/Library/Fonts/ProggyCleanTT CE Plus Nerd File Types Windows Compatible.ttf
p476
sg20
g21
sbag1
(g8
g3
NtRp477
(dp478
g11
g12
sg13
VPCMyungjo
p479
sg15
I400
sg16
g12
sg17
g12
sg18
V/Library/Fonts/PCmyoungjo.ttf
p480
sg20
g21
sbag1
(g8
g3
NtRp481
(dp482
g11
g12
sg13
VMeslo LG M for Powerline Plus Nerd File Types Mono Plus Pomicons
p483
sg15
I400
sg16
g12
sg17
g12
sg18
V/Users/nirum/Library/Fonts/Meslo LG M Regular for Powerline Plus Nerd File Types Mono Plus Pomicons.otf
p484
sg20
g21
sbag1
(g8
g3
NtRp485
(dp486
g11
g12
sg13
VSTIXIntegralsUpSm
p487
sg15
I400
sg16
g12
sg17
g12
sg18
V/Library/Fonts/STIXIntUpSmReg.otf
p488
sg20
g21
sbag1
(g8
g3
NtRp489
(dp490
g11
g12
sg13
VDejaVu Sans Mono for Powerline Plus Nerd File Types Plus Pomicons
p491
sg15
I400
sg16
g12
sg17
g12
sg18
V/Users/nirum/Library/Fonts/DejaVu Sans Mono for Powerline Plus Nerd File Types Plus Pomicons.ttf
p492
sg20
g21
sbag1
(g8
g3
NtRp493
(dp494
g11
g12
sg13
VEstrangelo Quenneshrin
p495
sg15
I400
sg16
g12
sg17
g12
sg18
V/usr/X11/lib/X11/fonts/OTF/SyrCOMQenNeshrin.otf
p496
sg20
g21
sbag1
(g8
g3
NtRp497
(dp498
g11
g12
sg13
VDejaVu Sans Mono for Powerline Plus Nerd File Types Mono Plus Pomicons
p499
sg15
I400
sg16
g12
sg17
g12
sg18
V/Users/nirum/Library/Fonts/DejaVu Sans Mono for Powerline Plus Nerd File Types Mono Plus Pomicons.ttf
p500
sg20
g21
sbag1
(g8
g3
NtRp501
(dp502
g11
g12
sg13
VSerto Malankara
p503
sg15
I400
sg16
g12
sg17
g12
sg18
V/usr/X11/lib/X11/fonts/OTF/SyrCOMMalankara.otf
p504
sg20
g21
sbag1
(g8
g3
NtRp505
(dp506
g11
g12
sg13
VEstrangelo Edessa
p507
sg15
I400
sg16
g12
sg17
g12
sg18
V/usr/X11/lib/X11/fonts/OTF/SyrCOMEdessa.otf
p508
sg20
g21
sbag1
(g8
g3
NtRp509
(dp510
g11
g12
sg13
VSystem Font
p511
sg15
I400
sg16
g12
sg17
g12
sg18
V/System/Library/Fonts/SFNSText-BoldG1.otf
p512
sg20
g21
sbag1
(g8
g3
NtRp513
(dp514
g11
g12
sg13
VGoha-Tibeb Zemen
p515
sg15
I400
sg16
g12
sg17
g12
sg18
V/usr/X11/lib/X11/fonts/OTF/GohaTibebZemen.otf
p516
sg20
g21
sbag1
(g8
g3
NtRp517
(dp518
g11
g12
sg13
VLuxi Sans
p519
sg15
I700
sg16
g12
sg17
g12
sg18
V/usr/X11/lib/X11/fonts/TTF/luxisb.ttf
p520
sg20
g21
sbag1
(g8
g3
NtRp521
(dp522
g11
g12
sg13
VApple Braille
p523
sg15
I400
sg16
g12
sg17
g12
sg18
V/System/Library/Fonts/Apple Braille.ttf
p524
sg20
g21
sbag1
(g8
g3
NtRp525
(dp526
g11
g12
sg13
VMeslo LG S DZ for Powerline Plus Nerd File Types Mono
p527
sg15
I400
sg16
g12
sg17
g12
sg18
V/Users/nirum/Library/Fonts/Meslo LG S DZ Regular for Powerline Plus Nerd File Types Mono.otf
p528
sg20
g21
sbag1
(g8
g3
NtRp529
(dp530
g11
g12
sg13
VM+ 1m Plus Nerd File Types Plus Pomicons
p531
sg15
I400
sg16
g12
sg17
g12
sg18
V/Users/nirum/Library/Fonts/M+ 1m thin Plus Nerd File Types Plus Pomicons.ttf
p532
sg20
g21
sbag1
(g8
g3
NtRp533
(dp534
g11
g12
sg13
VLekton PNFT Plus Pomicons
p535
sg15
I700
sg16
g12
sg17
g12
sg18
V/Users/nirum/Library/Fonts/Lekton-Bold Plus Nerd File Types Plus Pomicons Windows Compatible.ttf
p536
sg20
g21
sbag1
(g8
g3
NtRp537
(dp538
g11
g40
sg13
VSTIXNonUnicode
p539
sg15
I400
sg16
g12
sg17
g12
sg18
V/Library/Fonts/STIXNonUniIta.otf
p540
sg20
g21
sbag1
(g8
g3
NtRp541
(dp542
g11
g12
sg13
VLuxi Mono
p543
sg15
I700
sg16
g12
sg17
g12
sg18
V/usr/X11R6/lib/X11/fonts/TTF/luximb.ttf
p544
sg20
g21
sbag1
(g8
g3
NtRp545
(dp546
g11
g12
sg13
VComic Sans MS
p547
sg15
I700
sg16
g12
sg17
g12
sg18
V/Library/Fonts/Comic Sans MS Bold.ttf
p548
sg20
g21
sbag1
(g8
g3
NtRp549
(dp550
g11
g45
sg13
VBitstream Vera Sans Mono PNFT M
p551
sg15
I700
sg16
g12
sg17
g12
sg18
V/Users/nirum/Library/Fonts/Bitstream Vera Sans Mono Bold Oblique Plus Nerd File Types Mono Windows Compatible.ttf
p552
sg20
g21
sbag1
(g8
g3
NtRp553
(dp554
g11
g12
sg13
VM+ 1m Plus Nerd File Types Mono Plus Pomicons
p555
sg15
I400
sg16
g12
sg17
g12
sg18
V/Users/nirum/Library/Fonts/M+ 1m thin Plus Nerd File Types Mono Plus Pomicons.ttf
p556
sg20
g21
sbag1
(g8
g3
NtRp557
(dp558
g11
g12
sg13
VProggyCleanTT Plus Nerd File Types Plus Pomicons
p559
sg15
I400
sg16
g12
sg17
g12
sg18
V/Users/nirum/Library/Fonts/ProggyCleanTT Plus Nerd File Types Plus Pomicons.ttf
p560
sg20
g21
sbag1
(g8
g3
NtRp561
(dp562
g11
g12
sg13
VSerto Urhoy
p563
sg15
I400
sg16
g12
sg17
g12
sg18
V/usr/X11/lib/X11/fonts/OTF/SyrCOMUrhoy.otf
p564
sg20
g21
sbag1
(g8
g3
NtRp565
(dp566
g11
g12
sg13
VIBM 3270 PNFT Mono
p567
sg15
I500
sg16
g12
sg17
g12
sg18
V/Users/nirum/Library/Fonts/3270-Medium Plus Nerd File Types Mono Windows Compatible.otf
p568
sg20
g21
sbag1
(g8
g3
NtRp569
(dp570
g11
g12
sg13
VProggyCleanTT CE PNFT Mono
p571
sg15
I400
sg16
g12
sg17
g12
sg18
V/Users/nirum/Library/Fonts/ProggyCleanTT CE Plus Nerd File Types Mono Windows Compatible.ttf
p572
sg20
g21
sbag1
(g8
g3
NtRp573
(dp574
g11
g12
sg13
VSTIXNonUnicode
p575
sg15
I700
sg16
g12
sg17
g12
sg18
V/Library/Fonts/STIXNonUniBol.otf
p576
sg20
g21
sbag1
(g8
g3
NtRp577
(dp578
g11
g12
sg13
VWebdings
p579
sg15
I400
sg16
g12
sg17
g12
sg18
V/Library/Fonts/Webdings.ttf
p580
sg20
g21
sbag1
(g8
g3
NtRp581
(dp582
g11
g12
sg13
VApple Braille
p583
sg15
I400
sg16
g12
sg17
g12
sg18
V/System/Library/Fonts/Apple Braille Pinpoint 6 Dot.ttf
p584
sg20
g21
sbag1
(g8
g3
NtRp585
(dp586
g11
g12
sg13
VM+ 1m Plus Nerd File Types Mono
p587
sg15
I400
sg16
g12
sg17
g12
sg18
V/Users/nirum/Library/Fonts/M+ 1m regular Plus Nerd File Types Mono.ttf
p588
sg20
g21
sbag1
(g8
g3
NtRp589
(dp590
g11
g12
sg13
VSymbol
p591
sg15
I400
sg16
g12
sg17
g12
sg18
V/System/Library/Fonts/Symbol.ttf
p592
sg20
g21
sbag1
(g8
g3
NtRp593
(dp594
g11
g12
sg13
VProggyCleanTT CE Plus Nerd File Types
p595
sg15
I400
sg16
g12
sg17
g12
sg18
V/Users/nirum/Library/Fonts/ProggyCleanTT CE Plus Nerd File Types.ttf
p596
sg20
g21
sbag1
(g8
g3
NtRp597
(dp598
g11
g12
sg13
VM+ 1m PNFT Mono Plus Pomicons
p599
sg15
I400
sg16
g12
sg17
g12
sg18
V/Users/nirum/Library/Fonts/M+ 1m regular Plus Nerd File Types Mono Plus Pomicons Windows Compatible.ttf
p600
sg20
g21
sbag1
(g8
g3
NtRp601
(dp602
g11
g45
sg13
VDejaVu Sans Mono for Powerline 
p603
sg15
I400
sg16
g12
sg17
g12
sg18
V/Users/nirum/Library/Fonts/DejaVu Sans Mono Oblique for Powerline Plus Nerd File Types Plus Pomicons Windows Compatible.ttf
p604
sg20
g21
sbag1
(g8
g3
NtRp605
(dp606
g11
g12
sg13
VMeslo LG L for Powerline Plus Nerd File Types Mono Plus Pomicons
p607
sg15
I400
sg16
g12
sg17
g12
sg18
V/Users/nirum/Library/Fonts/Meslo LG L Regular for Powerline Plus Nerd File Types Mono Plus Pomicons.otf
p608
sg20
g21
sbag1
(g8
g3
NtRp609
(dp610
g11
g12
sg13
VLekton PNFT Mono
p611
sg15
I400
sg16
g12
sg17
g12
sg18
V/Users/nirum/Library/Fonts/Lekton Plus Nerd File Types Mono Windows Compatible.ttf
p612
sg20
g21
sbag1
(g8
g3
NtRp613
(dp614
g11
g45
sg13
VBitstream Vera Sans Mono Plus Nerd File Types Plus Pomicons
p615
sg15
I400
sg16
g12
sg17
g12
sg18
V/Users/nirum/Library/Fonts/Bitstream Vera Sans Mono Oblique Plus Nerd File Types Plus Pomicons.ttf
p616
sg20
g21
sbag1
(g8
g3
NtRp617
(dp618
g11
g12
sg13
VSystem Font
p619
sg15
I400
sg16
g12
sg17
g12
sg18
V/System/Library/Fonts/SFNSText-RegularItalicG1.otf
p620
sg20
g21
sbag1
(g8
g3
NtRp621
(dp622
g11
g12
sg13
VM+ 1m PNFT Plus Pomicons
p623
sg15
I700
sg16
g12
sg17
g12
sg18
V/Users/nirum/Library/Fonts/M+ 1m bold Plus Nerd File Types Plus Pomicons Windows Compatible.ttf
p624
sg20
g21
sbag1
(g8
g3
NtRp625
(dp626
g11
g12
sg13
VUbuntu Mono derivative Powerline Plus Nerd File Types Plus Pomicons
p627
sg15
I400
sg16
g12
sg17
g12
sg18
V/Users/nirum/Library/Fonts/Ubuntu Mono derivative Powerline Plus Nerd File Types Plus Pomicons.ttf
p628
sg20
g21
sbag1
(g8
g3
NtRp629
(dp630
g11
g12
sg13
VDejaVu Sans Mono for Powerline Plus Nerd File Types Mono
p631
sg15
I700
sg16
g12
sg17
g12
sg18
V/Users/nirum/Library/Fonts/DejaVu Sans Mono Bold for Powerline Plus Nerd File Types Mono.ttf
p632
sg20
g21
sbag1
(g8
g3
NtRp633
(dp634
g11
g40
sg13
VCourier New
p635
sg15
I400
sg16
g12
sg17
g12
sg18
V/Library/Fonts/Courier New Italic.ttf
p636
sg20
g21
sbag1
(g8
g3
NtRp637
(dp638
g11
g12
sg13
VProggyCleanTT CE Plus Nerd File Types Mono Plus Pomicons
p639
sg15
I400
sg16
g12
sg17
g12
sg18
V/Users/nirum/Library/Fonts/ProggyCleanTT CE Plus Nerd File Types Mono Plus Pomicons.ttf
p640
sg20
g21
sbag1
(g8
g3
NtRp641
(dp642
g11
g12
sg13
VIBM 3270 Narrow Plus Nerd File Types Mono
p643
sg15
I400
sg16
g183
sg17
g12
sg18
V/Users/nirum/Library/Fonts/3270 Narrow Plus Nerd File Types Mono.otf
p644
sg20
g21
sbag1
(g8
g3
NtRp645
(dp646
g11
g12
sg13
VIBM 3270 Narrow Plus Nerd File Types Mono Plus Pomicons
p647
sg15
I400
sg16
g183
sg17
g12
sg18
V/Users/nirum/Library/Fonts/3270 Narrow Plus Nerd File Types Mono Plus Pomicons.ttf
p648
sg20
g21
sbag1
(g8
g3
NtRp649
(dp650
g11
g12
sg13
VFira Mono for Powerline Plus Nerd File Types Mono
p651
sg15
I400
sg16
g12
sg17
g12
sg18
V/Users/nirum/Library/Fonts/Fira Mono Regular for Powerline Plus Nerd File Types Mono.otf
p652
sg20
g21
sbag1
(g8
g3
NtRp653
(dp654
g11
g12
sg13
VArial Black
p655
sg15
I900
sg16
g12
sg17
g12
sg18
V/Library/Fonts/Arial Black.ttf
p656
sg20
g21
sbag1
(g8
g3
NtRp657
(dp658
g11
g12
sg13
VM+ 1m Plus Nerd File Types Plus Pomicons
p659
sg15
I700
sg16
g12
sg17
g12
sg18
V/Users/nirum/Library/Fonts/M+ 1m bold Plus Nerd File Types Plus Pomicons.ttf
p660
sg20
g21
sbag1
(g8
g3
NtRp661
(dp662
g11
g12
sg13
VLekton Plus Nerd File Types Plus Pomicons
p663
sg15
I700
sg16
g12
sg17
g12
sg18
V/Users/nirum/Library/Fonts/Lekton-Bold Plus Nerd File Types Plus Pomicons.ttf
p664
sg20
g21
sbag1
(g8
g3
NtRp665
(dp666
g11
g12
sg13
VSerto Mardin
p667
sg15
I400
sg16
g12
sg17
g12
sg18
V/usr/X11/lib/X11/fonts/OTF/SyrCOMMardin.otf
p668
sg20
g21
sbag1
(g8
g3
NtRp669
(dp670
g11
g40
sg13
VSTIXGeneral
p671
sg15
I400
sg16
g12
sg17
g12
sg18
V/Library/Fonts/STIXGeneralItalic.otf
p672
sg20
g21
sbag1
(g8
g3
NtRp673
(dp674
g11
g12
sg13
VLuxi Serif
p675
sg15
I400
sg16
g12
sg17
g12
sg18
V/usr/X11/lib/X11/fonts/TTF/luxirr.ttf
p676
sg20
g21
sbag1
(g8
g3
NtRp677
(dp678
g11
g12
sg13
VMeslo LG S DZ for Powerline Plus Nerd File Types Plus Pomicons
p679
sg15
I400
sg16
g12
sg17
g12
sg18
V/Users/nirum/Library/Fonts/Meslo LG S DZ Regular for Powerline Plus Nerd File Types Plus Pomicons.otf
p680
sg20
g21
sbag1
(g8
g3
NtRp681
(dp682
g11
g12
sg13
VSTIXSizeFourSym
p683
sg15
I400
sg16
g12
sg17
g12
sg18
V/Library/Fonts/STIXSizFourSymReg.otf
p684
sg20
g21
sbag1
(g8
g3
NtRp685
(dp686
g11
g12
sg13
VInconsolata for Powerline PNFT 
p687
sg15
I400
sg16
g12
sg17
g12
sg18
V/Users/nirum/Library/Fonts/Inconsolata for Powerline Plus Nerd File Types Plus Pomicons Windows Compatible.otf
p688
sg20
g21
sbag1
(g8
g3
NtRp689
(dp690
g11
g12
sg13
VMeslo LG M DZ for Powerline Plus Nerd File Types
p691
sg15
I400
sg16
g12
sg17
g12
sg18
V/Users/nirum/Library/Fonts/Meslo LG M DZ Regular for Powerline Plus Nerd File Types.otf
p692
sg20
g21
sbag1
(g8
g3
NtRp693
(dp694
g11
g12
sg13
VWingdings 3
p695
sg15
I400
sg16
g12
sg17
g12
sg18
V/Library/Fonts/Wingdings 3.ttf
p696
sg20
g21
sbag1
(g8
g3
NtRp697
(dp698
g11
g12
sg13
VLiteration Mono Powerline PNFT 
p699
sg15
I400
sg16
g12
sg17
g12
sg18
V/Users/nirum/Library/Fonts/Literation Mono Powerline Plus Nerd File Types Plus Pomicons Windows Compatible.ttf
p700
sg20
g21
sbag1
(g8
g3
NtRp701
(dp702
g11
g45
sg13
VDejaVu Sans Mono for Powerline 
p703
sg15
I700
sg16
g12
sg17
g12
sg18
V/Users/nirum/Library/Fonts/DejaVu Sans Mono Bold Oblique for Powerline Plus Nerd File Types Windows Compatible.ttf
p704
sg20
g21
sbag1
(g8
g3
NtRp705
(dp706
g11
g12
sg13
VProggyCleanTT CE PNFT Mono Plus
p707
sg15
I400
sg16
g12
sg17
g12
sg18
V/Users/nirum/Library/Fonts/ProggyCleanTT CE Plus Nerd File Types Mono Plus Pomicons Windows Compatible.ttf
p708
sg20
g21
sbag1
(g8
g3
NtRp709
(dp710
g11
g12
sg13
VProFontWindows Plus Nerd File Types Mono
p711
sg15
I400
sg16
g12
sg17
g12
sg18
V/Users/nirum/Library/Fonts/ProFontWindows Plus Nerd File Types Mono.ttf
p712
sg20
g21
sbag1
(g8
g3
NtRp713
(dp714
g11
g12
sg13
VComic Sans MS
p715
sg15
I400
sg16
g12
sg17
g12
sg18
V/Library/Fonts/Comic Sans MS.ttf
p716
sg20
g21
sbag1
(g8
g3
NtRp717
(dp718
g11
g12
sg13
VSTIXSizeFourSym
p719
sg15
I700
sg16
g12
sg17
g12
sg18
V/Library/Fonts/STIXSizFourSymBol.otf
p720
sg20
g21
sbag1
(g8
g3
NtRp721
(dp722
g11
g12
sg13
VFira Mono Medium for Powerline 
p723
sg15
I500
sg16
g12
sg17
g12
sg18
V/Users/nirum/Library/Fonts/Fira Mono Medium for Powerline Plus Nerd File Types Windows Compatible.otf
p724
sg20
g21
sbag1
(g8
g3
NtRp725
(dp726
g11
g12
sg13
VSauce Code Powerline Plus Nerd File Types Plus Pomicons
p727
sg15
I400
sg16
g12
sg17
g12
sg18
V/Users/nirum/Library/Fonts/Sauce Code Powerline Plus Nerd File Types Plus Pomicons.otf
p728
sg20
g21
sbag1
(g8
g3
NtRp729
(dp730
g11
g12
sg13
VYuppy SC
p731
sg15
I400
sg16
g12
sg17
g12
sg18
V/Library/Fonts/YuppySC-Regular.otf
p732
sg20
g21
sbag1
(g8
g3
NtRp733
(dp734
g11
g12
sg13
VMeslo LG L DZ for Powerline PNF
p735
sg15
I400
sg16
g12
sg17
g12
sg18
V/Users/nirum/Library/Fonts/Meslo LG L DZ Regular for Powerline Plus Nerd File Types Mono Windows Compatible.otf
p736
sg20
g21
sbag1
(g8
g3
NtRp737
(dp738
g11
g12
sg13
VWingdings
p739
sg15
I400
sg16
g12
sg17
g12
sg18
V/Library/Fonts/Wingdings.ttf
p740
sg20
g21
sbag1
(g8
g3
NtRp741
(dp742
g11
g12
sg13
VImpact
p743
sg15
I400
sg16
g12
sg17
g12
sg18
V/Library/Fonts/Impact.ttf
p744
sg20
g21
sbag1
(g8
g3
NtRp745
(dp746
g11
g12
sg13
VTahoma
p747
sg15
I700
sg16
g12
sg17
g12
sg18
V/Library/Fonts/Tahoma Bold.ttf
p748
sg20
g21
sbag1
(g8
g3
NtRp749
(dp750
g11
g12
sg13
VMeslo LG S for Powerline PNFT
p751
sg15
I400
sg16
g12
sg17
g12
sg18
V/Users/nirum/Library/Fonts/Meslo LG S Regular for Powerline Plus Nerd File Types Windows Compatible.otf
p752
sg20
g21
sbag1
(g8
g3
NtRp753
(dp754
g11
g40
sg13
VGeorgia
p755
sg15
I700
sg16
g12
sg17
g12
sg18
V/Library/Fonts/Georgia Bold Italic.ttf
p756
sg20
g21
sbag1
(g8
g3
NtRp757
(dp758
g11
g12
sg13
VSystem Font
p759
sg15
I400
sg16
g12
sg17
g12
sg18
V/System/Library/Fonts/SFNSDisplay-Heavy.otf
p760
sg20
g21
sbag1
(g8
g3
NtRp761
(dp762
g11
g12
sg13
VMeslo LG L for Powerline PNFT M
p763
sg15
I400
sg16
g12
sg17
g12
sg18
V/Users/nirum/Library/Fonts/Meslo LG L Regular for Powerline Plus Nerd File Types Mono Plus Pomicons Windows Compatible.otf
p764
sg20
g21
sbag1
(g8
g3
NtRp765
(dp766
g11
g12
sg13
Vmonofur for Powerline PNFT
p767
sg15
I400
sg16
g12
sg17
g12
sg18
V/Users/nirum/Library/Fonts/monofur for Powerline Plus Nerd File Types Windows Compatible.ttf
p768
sg20
g21
sbag1
(g8
g3
NtRp769
(dp770
g11
g45
sg13
VBitstream Vera Sans Mono Plus Nerd File Types Mono Plus Pomicons
p771
sg15
I700
sg16
g12
sg17
g12
sg18
V/Users/nirum/Library/Fonts/Bitstream Vera Sans Mono Bold Oblique Plus Nerd File Types Mono Plus Pomicons.ttf
p772
sg20
g21
sbag1
(g8
g3
NtRp773
(dp774
g11
g45
sg13
VLuxi Mono
p775
sg15
I700
sg16
g12
sg17
g12
sg18
V/usr/X11/lib/X11/fonts/TTF/luximbi.ttf
p776
sg20
g21
sbag1
(g8
g3
NtRp777
(dp778
g11
g12
sg13
VInconsolata for Powerline PNFT
p779
sg15
I400
sg16
g12
sg17
g12
sg18
V/Users/nirum/Library/Fonts/Inconsolata for Powerline Plus Nerd File Types Windows Compatible.otf
p780
sg20
g21
sbag1
(g8
g3
NtRp781
(dp782
g11
g12
sg13
VHoefler Text
p783
sg15
I400
sg16
g12
sg17
g12
sg18
V/Library/Fonts/Hoefler Text Ornaments.ttf
p784
sg20
g21
sbag1
(g8
g3
NtRp785
(dp786
g11
g12
sg13
VSystem Font
p787
sg15
I400
sg16
g12
sg17
g12
sg18
V/System/Library/Fonts/SFNSText-HeavyItalic.otf
p788
sg20
g21
sbag1
(g8
g3
NtRp789
(dp790
g11
g12
sg13
VEstrangelo Nisibin
p791
sg15
I400
sg16
g12
sg17
g12
sg18
V/usr/X11/lib/X11/fonts/OTF/SyrCOMNisibin.otf
p792
sg20
g21
sbag1
(g8
g3
NtRp793
(dp794
g11
g45
sg13
VBitstream Vera Sans Mono Plus Nerd File Types Mono
p795
sg15
I700
sg16
g12
sg17
g12
sg18
V/Users/nirum/Library/Fonts/Bitstream Vera Sans Mono Bold Oblique Plus Nerd File Types Mono.ttf
p796
sg20
g21
sbag1
(g8
g3
NtRp797
(dp798
g11
g45
sg13
VBitstream Vera Sans Mono PNFT M
p799
sg15
I400
sg16
g12
sg17
g12
sg18
V/Users/nirum/Library/Fonts/Bitstream Vera Sans Mono Oblique Plus Nerd File Types Mono Windows Compatible.ttf
p800
sg20
g21
sbag1
(g8
g3
NtRp801
(dp802
g11
g12
sg13
VBitstream Vera Sans Mono PNFT M
p803
sg15
I400
sg16
g12
sg17
g12
sg18
V/Users/nirum/Library/Fonts/Bitstream Vera Sans Mono Plus Nerd File Types Mono Windows Compatible.ttf
p804
sg20
g21
sbag1
(g8
g3
NtRp805
(dp806
g11
g12
sg13
VHeavy Data Plus Nerd File Types Mono Plus Pomicons
p807
sg15
I800
sg16
g12
sg17
g12
sg18
V/Users/nirum/Library/Fonts/Heavy Data Plus Nerd File Types Mono Plus Pomicons.ttf
p808
sg20
g21
sbag1
(g8
g3
NtRp809
(dp810
g11
g12
sg13
VMeslo LG S for Powerline Plus Nerd File Types
p811
sg15
I400
sg16
g12
sg17
g12
sg18
V/Users/nirum/Library/Fonts/Meslo LG S Regular for Powerline Plus Nerd File Types.otf
p812
sg20
g21
sbag1
(g8
g3
NtRp813
(dp814
g11
g12
sg13
VIBM 3270 Narrow PNFT Mono Plus 
p815
sg15
I400
sg16
g183
sg17
g12
sg18
V/Users/nirum/Library/Fonts/3270 Narrow Plus Nerd File Types Mono Plus Pomicons Windows Compatible.ttf
p816
sg20
g21
sbag1
(g8
g3
NtRp817
(dp818
g11
g12
sg13
VSystem Font
p819
sg15
I400
sg16
g12
sg17
g12
sg18
V/System/Library/Fonts/SFNSDisplay-Bold.otf
p820
sg20
g21
sbag1
(g8
g3
NtRp821
(dp822
g11
g12
sg13
VPilGi
p823
sg15
I400
sg16
g12
sg17
g12
sg18
V/Library/Fonts/Pilgiche.ttf
p824
sg20
g21
sbag1
(g8
g3
NtRp825
(dp826
g11
g12
sg13
VMeslo LG S DZ for Powerline PNF
p827
sg15
I400
sg16
g12
sg17
g12
sg18
V/Users/nirum/Library/Fonts/Meslo LG S DZ Regular for Powerline Plus Nerd File Types Plus Pomicons Windows Compatible.otf
p828
sg20
g21
sbag1
(g8
g3
NtRp829
(dp830
g11
g12
sg13
VAurulent Sans Mono Plus Nerd File Types Plus Pomicons
p831
sg15
I400
sg16
g12
sg17
g12
sg18
V/Users/nirum/Library/Fonts/AurulentSansMono-Regular Plus Nerd File Types Plus Pomicons.otf
p832
sg20
g21
sbag1
(g8
g3
NtRp833
(dp834
g11
g12
sg13
VFira Mono for Powerline PNFT
p835
sg15
I700
sg16
g12
sg17
g12
sg18
V/Users/nirum/Library/Fonts/Fira Mono Bold for Powerline Plus Nerd File Types Windows Compatible.otf
p836
sg20
g21
sbag1
(g8
g3
NtRp837
(dp838
g11
g45
sg13
VBitstream Vera Sans Mono Plus Nerd File Types
p839
sg15
I700
sg16
g12
sg17
g12
sg18
V/Users/nirum/Library/Fonts/Bitstream Vera Sans Mono Bold Oblique Plus Nerd File Types.ttf
p840
sg20
g21
sbag1
(g8
g3
NtRp841
(dp842
g11
g12
sg13
VYuGothic
p843
sg15
I500
sg16
g12
sg17
g12
sg18
V/Library/Fonts/Yu Gothic Medium.otf
p844
sg20
g21
sbag1
(g8
g3
NtRp845
(dp846
g11
g12
sg13
VFira Mono for Powerline PNFT Mo
p847
sg15
I700
sg16
g12
sg17
g12
sg18
V/Users/nirum/Library/Fonts/Fira Mono Bold for Powerline Plus Nerd File Types Mono Windows Compatible.otf
p848
sg20
g21
sbag1
(g8
g3
NtRp849
(dp850
g11
g12
sg13
VUbuntu Mono derivative Powerline Plus Nerd File Types
p851
sg15
I400
sg16
g12
sg17
g12
sg18
V/Users/nirum/Library/Fonts/Ubuntu Mono derivative Powerline Plus Nerd File Types.ttf
p852
sg20
g21
sbag1
(g8
g3
NtRp853
(dp854
g11
g12
sg13
VMeslo LG M for Powerline Plus Nerd File Types Mono
p855
sg15
I400
sg16
g12
sg17
g12
sg18
V/Users/nirum/Library/Fonts/Meslo LG M Regular for Powerline Plus Nerd File Types Mono.otf
p856
sg20
g21
sbag1
(g8
g3
NtRp857
(dp858
g11
g12
sg13
VFira Mono Medium for Powerline Plus Nerd File Types Mono
p859
sg15
I500
sg16
g12
sg17
g12
sg18
V/Users/nirum/Library/Fonts/Fira Mono Medium for Powerline Plus Nerd File Types Mono.otf
p860
sg20
g21
sbag1
(g8
g3
NtRp861
(dp862
g11
g12
sg13
Vmonofur for Powerline Plus Nerd File Types Plus Pomicons
p863
sg15
I700
sg16
g12
sg17
g12
sg18
V/Users/nirum/Library/Fonts/monofur   bold for Powerline Plus Nerd File Types Plus Pomicons.ttf
p864
sg20
g21
sbag1
(g8
g3
NtRp865
(dp866
g11
g12
sg13
VProggyCleanTT PNFT Mono
p867
sg15
I400
sg16
g12
sg17
g12
sg18
V/Users/nirum/Library/Fonts/ProggyCleanTT Plus Nerd File Types Mono Windows Compatible.ttf
p868
sg20
g21
sbag1
(g8
g3
NtRp869
(dp870
g11
g12
sg13
VM+ 1m PNFT Plus Pomicons
p871
sg15
I400
sg16
g12
sg17
g12
sg18
V/Users/nirum/Library/Fonts/M+ 1m regular Plus Nerd File Types Plus Pomicons Windows Compatible.ttf
p872
sg20
g21
sbag1
(g8
g3
NtRp873
(dp874
g11
g12
sg13
VZapf Dingbats
p875
sg15
I400
sg16
g12
sg17
g12
sg18
V/System/Library/Fonts/ZapfDingbats.ttf
p876
sg20
g21
sbag1
(g8
g3
NtRp877
(dp878
g11
g12
sg13
VSystem Font
p879
sg15
I400
sg16
g12
sg17
g12
sg18
V/System/Library/Fonts/SFNSText-BoldItalicG2.otf
p880
sg20
g21
sbag1
(g8
g3
NtRp881
(dp882
g11
g12
sg13
VSauce Code Powerline PNFT
p883
sg15
I400
sg16
g12
sg17
g12
sg18
V/Users/nirum/Library/Fonts/Sauce Code Powerline Plus Nerd File Types Windows Compatible.otf
p884
sg20
g21
sbag1
(g8
g3
NtRp885
(dp886
g11
g12
sg13
VProFontWindows Plus Nerd File Types
p887
sg15
I400
sg16
g12
sg17
g12
sg18
V/Users/nirum/Library/Fonts/ProFontWindows Plus Nerd File Types.ttf
p888
sg20
g21
sbag1
(g8
g3
NtRp889
(dp890
g11
g12
sg13
VProggyCleanTT PNFT Mono Plus Po
p891
sg15
I400
sg16
g12
sg17
g12
sg18
V/Users/nirum/Library/Fonts/ProggyCleanTT Plus Nerd File Types Mono Plus Pomicons Windows Compatible.ttf
p892
sg20
g21
sbag1
(g8
g3
NtRp893
(dp894
g11
g12
sg13
VFira Mono for Powerline PNFT Pl
p895
sg15
I400
sg16
g12
sg17
g12
sg18
V/Users/nirum/Library/Fonts/Fira Mono Regular for Powerline Plus Nerd File Types Plus Pomicons Windows Compatible.otf
p896
sg20
g21
sbag1
(g8
g3
NtRp897
(dp898
g11
g45
sg13
VLuxi Serif
p899
sg15
I400
sg16
g12
sg17
g12
sg18
V/usr/X11/lib/X11/fonts/TTF/luxirri.ttf
p900
sg20
g21
sbag1
(g8
g3
NtRp901
(dp902
g11
g12
sg13
VDejaVu Sans Mono for Powerline 
p903
sg15
I700
sg16
g12
sg17
g12
sg18
V/Users/nirum/Library/Fonts/DejaVu Sans Mono Bold for Powerline Plus Nerd File Types Mono Windows Compatible.ttf
p904
sg20
g21
sbag1
(g8
g3
NtRp905
(dp906
g11
g12
sg13
VLuminari
p907
sg15
I400
sg16
g12
sg17
g12
sg18
V/Library/Fonts/Luminari.ttf
p908
sg20
g21
sbag1
(g8
g3
NtRp909
(dp910
g11
g12
sg13
VDejaVu Sans Mono for Powerline 
p911
sg15
I400
sg16
g12
sg17
g12
sg18
V/Users/nirum/Library/Fonts/DejaVu Sans Mono for Powerline Plus Nerd File Types Plus Pomicons Windows Compatible.ttf
p912
sg20
g21
sbag1
(g8
g3
NtRp913
(dp914
g11
g40
sg13
VTrebuchet MS
p915
sg15
I700
sg16
g12
sg17
g12
sg18
V/Library/Fonts/Trebuchet MS Bold Italic.ttf
p916
sg20
g21
sbag1
(g8
g3
NtRp917
(dp918
g11
g12
sg13
VSTIXIntegralsSm
p919
sg15
I700
sg16
g12
sg17
g12
sg18
V/Library/Fonts/STIXIntSmBol.otf
p920
sg20
g21
sbag1
(g8
g3
NtRp921
(dp922
g11
g12
sg13
VHeavy Data Plus Nerd File Types Plus Pomicons
p923
sg15
I800
sg16
g12
sg17
g12
sg18
V/Users/nirum/Library/Fonts/Heavy Data Plus Nerd File Types Plus Pomicons.ttf
p924
sg20
g21
sbag1
(g8
g3
NtRp925
(dp926
g11
g12
sg13
VBradley Hand
p927
sg15
I700
sg16
g12
sg17
g12
sg18
V/Library/Fonts/Bradley Hand Bold.ttf
p928
sg20
g21
sbag1
(g8
g3
NtRp929
(dp930
g11
g12
sg13
VM+ 1m Plus Nerd File Types
p931
sg15
I400
sg16
g12
sg17
g12
sg18
V/Users/nirum/Library/Fonts/M+ 1m regular Plus Nerd File Types.ttf
p932
sg20
g21
sbag1
(g8
g3
NtRp933
(dp934
g11
g12
sg13
VUbuntu Mono derivative Powerline Plus Nerd File Types Mono Plus Pomicons
p935
sg15
I400
sg16
g12
sg17
g12
sg18
V/Users/nirum/Library/Fonts/Ubuntu Mono derivative Powerline Plus Nerd File Types Mono Plus Pomicons.ttf
p936
sg20
g21
sbag1
(g8
g3
NtRp937
(dp938
g11
g45
sg13
VDejaVu Sans Mono for Powerline 
p939
sg15
I400
sg16
g12
sg17
g12
sg18
V/Users/nirum/Library/Fonts/DejaVu Sans Mono Oblique for Powerline Plus Nerd File Types Mono Plus Pomicons Windows Compatible.ttf
p940
sg20
g21
sbag1
(g8
g3
NtRp941
(dp942
g11
g12
sg13
VFira Mono for Powerline Plus Nerd File Types Mono Plus Pomicons
p943
sg15
I700
sg16
g12
sg17
g12
sg18
V/Users/nirum/Library/Fonts/Fira Mono Bold for Powerline Plus Nerd File Types Mono Plus Pomicons.otf
p944
sg20
g21
sbag1
(g8
g3
NtRp945
(dp946
g11
g12
sg13
VDejaVu Sans Mono for Powerline 
p947
sg15
I400
sg16
g12
sg17
g12
sg18
V/Users/nirum/Library/Fonts/DejaVu Sans Mono for Powerline Plus Nerd File Types Mono Windows Compatible.ttf
p948
sg20
g21
sbag1
(g8
g3
NtRp949
(dp950
g11
g12
sg13
VMeslo LG S for Powerline PNFT M
p951
sg15
I400
sg16
g12
sg17
g12
sg18
V/Users/nirum/Library/Fonts/Meslo LG S Regular for Powerline Plus Nerd File Types Mono Windows Compatible.otf
p952
sg20
g21
sbag1
(g8
g3
NtRp953
(dp954
g11
g12
sg13
VM+ 1m PNFT Mono Plus Pomicons
p955
sg15
I500
sg16
g12
sg17
g12
sg18
V/Users/nirum/Library/Fonts/M+ 1m medium Plus Nerd File Types Mono Plus Pomicons Windows Compatible.ttf
p956
sg20
g21
sbag1
(g8
g3
NtRp957
(dp958
g11
g45
sg13
VBitstream Vera Sans Mono PNFT M
p959
sg15
I700
sg16
g12
sg17
g12
sg18
V/Users/nirum/Library/Fonts/Bitstream Vera Sans Mono Bold Oblique Plus Nerd File Types Mono Plus Pomicons Windows Compatible.ttf
p960
sg20
g21
sbag1
(g8
g3
NtRp961
(dp962
g11
g12
sg13
VM+ 1m Plus Nerd File Types Plus Pomicons
p963
sg15
I500
sg16
g12
sg17
g12
sg18
V/Users/nirum/Library/Fonts/M+ 1m medium Plus Nerd File Types Plus Pomicons.ttf
p964
sg20
g21
sbag1
(g8
g3
NtRp965
(dp966
g11
g45
sg13
VDejaVu Sans Mono for Powerline Plus Nerd File Types Mono
p967
sg15
I700
sg16
g12
sg17
g12
sg18
V/Users/nirum/Library/Fonts/DejaVu Sans Mono Bold Oblique for Powerline Plus Nerd File Types Mono.ttf
p968
sg20
g21
sbag1
(g8
g3
NtRp969
(dp970
g11
g12
sg13
VMeslo LG L DZ for Powerline Plus Nerd File Types Mono Plus Pomicons
p971
sg15
I400
sg16
g12
sg17
g12
sg18
V/Users/nirum/Library/Fonts/Meslo LG L DZ Regular for Powerline Plus Nerd File Types Mono Plus Pomicons.otf
p972
sg20
g21
sbag1
(g8
g3
NtRp973
(dp974
g11
g12
sg13
VProggyCleanTT Plus Nerd File Types Mono Plus Pomicons
p975
sg15
I400
sg16
g12
sg17
g12
sg18
V/Users/nirum/Library/Fonts/ProggyCleanTT Plus Nerd File Types Mono Plus Pomicons.ttf
p976
sg20
g21
sbag1
(g8
g3
NtRp977
(dp978
g11
g12
sg13
VSTFangsong
p979
sg15
I400
sg16
g12
sg17
g12
sg18
V/Library/Fonts/\u534e\u6587\u4eff\u5b8b.ttf
p980
sg20
g21
sbag1
(g8
g3
NtRp981
(dp982
g11
g12
sg13
VM+ 1m PNFT
p983
sg15
I500
sg16
g12
sg17
g12
sg18
V/Users/nirum/Library/Fonts/M+ 1m medium Plus Nerd File Types Windows Compatible.ttf
p984
sg20
g21
sbag1
(g8
g3
NtRp985
(dp986
g11
g12
sg13
VLuxi Serif
p987
sg15
I700
sg16
g12
sg17
g12
sg18
V/usr/X11R6/lib/X11/fonts/TTF/luxirb.ttf
p988
sg20
g21
sbag1
(g8
g3
NtRp989
(dp990
g11
g40
sg13
Vmonofur for Powerline Plus Nerd File Types Plus Pomicons
p991
sg15
I400
sg16
g12
sg17
g12
sg18
V/Users/nirum/Library/Fonts/monofur   italic for Powerline Plus Nerd File Types Plus Pomicons.ttf
p992
sg20
g21
sbag1
(g8
g3
NtRp993
(dp994
g11
g12
sg13
VFira Mono for Powerline Plus Nerd File Types Plus Pomicons
p995
sg15
I700
sg16
g12
sg17
g12
sg18
V/Users/nirum/Library/Fonts/Fira Mono Bold for Powerline Plus Nerd File Types Plus Pomicons.otf
p996
sg20
g21
sbag1
(g8
g3
NtRp997
(dp998
g11
g12
sg13
VVerdana
p999
sg15
I400
sg16
g12
sg17
g12
sg18
V/Library/Fonts/Verdana.ttf
p1000
sg20
g21
sbag1
(g8
g3
NtRp1001
(dp1002
g11
g12
sg13
VLekton PNFT Mono Plus Pomicons
p1003
sg15
I400
sg16
g12
sg17
g12
sg18
V/Users/nirum/Library/Fonts/Lekton Plus Nerd File Types Mono Plus Pomicons Windows Compatible.ttf
p1004
sg20
g21
sbag1
(g8
g3
NtRp1005
(dp1006
g11
g12
sg13
VFarisi
p1007
sg15
I400
sg16
g12
sg17
g12
sg18
V/Library/Fonts/Farisi.ttf
p1008
sg20
g21
sbag1
(g8
g3
NtRp1009
(dp1010
g11
g12
sg13
VAnonymice Powerline Plus Nerd File Types Mono Plus Pomicons
p1011
sg15
I400
sg16
g12
sg17
g12
sg18
V/Users/nirum/Library/Fonts/Anonymice Powerline Plus Nerd File Types Mono Plus Pomicons.ttf
p1012
sg20
g21
sbag1
(g8
g3
NtRp1013
(dp1014
g11
g40
sg13
Vmonofur for Powerline Plus Nerd File Types Mono Plus Pomicons
p1015
sg15
I400
sg16
g12
sg17
g12
sg18
V/Users/nirum/Library/Fonts/monofur   italic for Powerline Plus Nerd File Types Mono Plus Pomicons.ttf
p1016
sg20
g21
sbag1
(g8
g3
NtRp1017
(dp1018
g11
g12
sg13
VSTIXNonUnicode
p1019
sg15
I400
sg16
g12
sg17
g12
sg18
V/Library/Fonts/STIXNonUni.otf
p1020
sg20
g21
sbag1
(g8
g3
NtRp1021
(dp1022
g11
g12
sg13
VBodoni 72 Smallcaps
p1023
sg15
I400
sg16
g12
sg17
g12
sg18
V/Library/Fonts/Bodoni 72 Smallcaps Book.ttf
p1024
sg20
g21
sbag1
(g8
g3
NtRp1025
(dp1026
g11
g12
sg13
VMeslo LG M DZ for Powerline Plus Nerd File Types Mono
p1027
sg15
I400
sg16
g12
sg17
g12
sg18
V/Users/nirum/Library/Fonts/Meslo LG M DZ Regular for Powerline Plus Nerd File Types Mono.otf
p1028
sg20
g21
sbag1
(g8
g3
NtRp1029
(dp1030
g11
g12
sg13
VLekton Plus Nerd File Types Plus Pomicons
p1031
sg15
I400
sg16
g12
sg17
g12
sg18
V/Users/nirum/Library/Fonts/Lekton Plus Nerd File Types Plus Pomicons.ttf
p1032
sg20
g21
sbag1
(g8
g3
NtRp1033
(dp1034
g11
g12
sg13
VFira Mono for Powerline Plus Nerd File Types Plus Pomicons
p1035
sg15
I400
sg16
g12
sg17
g12
sg18
V/Users/nirum/Library/Fonts/Fira Mono Regular for Powerline Plus Nerd File Types Plus Pomicons.otf
p1036
sg20
g21
sbag1
(g8
g3
NtRp1037
(dp1038
g11
g12
sg13
VSystem Font
p1039
sg15
I400
sg16
g12
sg17
g12
sg18
V/System/Library/Fonts/SFNSText-Bold.otf
p1040
sg20
g21
sbag1
(g8
g3
NtRp1041
(dp1042
g11
g40
sg13
VArial
p1043
sg15
I400
sg16
g12
sg17
g12
sg18
V/Library/Fonts/Arial Italic.ttf
p1044
sg20
g21
sbag1
(g8
g3
NtRp1045
(dp1046
g11
g12
sg13
VAnonymice Powerline PNFT
p1047
sg15
I400
sg16
g12
sg17
g12
sg18
V/Users/nirum/Library/Fonts/Anonymice Powerline Plus Nerd File Types Windows Compatible.ttf
p1048
sg20
g21
sbag1
(g8
g3
NtRp1049
(dp1050
g11
g12
sg13
VMeslo LG S DZ for Powerline PNF
p1051
sg15
I400
sg16
g12
sg17
g12
sg18
V/Users/nirum/Library/Fonts/Meslo LG S DZ Regular for Powerline Plus Nerd File Types Windows Compatible.otf
p1052
sg20
g21
sbag1
(g8
g3
NtRp1053
(dp1054
g11
g12
sg13
VSauce Code Powerline PNFT Mono
p1055
sg15
I400
sg16
g12
sg17
g12
sg18
V/Users/nirum/Library/Fonts/Sauce Code Powerline Plus Nerd File Types Mono Windows Compatible.otf
p1056
sg20
g21
sbag1
(g8
g3
NtRp1057
(dp1058
g11
g45
sg13
VBitstream Vera Sans Mono PNFT
p1059
sg15
I400
sg16
g12
sg17
g12
sg18
V/Users/nirum/Library/Fonts/Bitstream Vera Sans Mono Oblique Plus Nerd File Types Windows Compatible.ttf
p1060
sg20
g21
sbag1
(g8
g3
NtRp1061
(dp1062
g11
g40
sg13
VSTIXNonUnicode
p1063
sg15
I700
sg16
g12
sg17
g12
sg18
V/Library/Fonts/STIXNonUniBolIta.otf
p1064
sg20
g21
sbag1
(g8
g3
NtRp1065
(dp1066
g11
g12
sg13
VWawati SC
p1067
sg15
I400
sg16
g12
sg17
g12
sg18
V/Library/Fonts/WawaSC-Regular.otf
p1068
sg20
g21
sbag1
(g8
g3
NtRp1069
(dp1070
g11
g12
sg13
VMeslo LG L DZ for Powerline PNF
p1071
sg15
I400
sg16
g12
sg17
g12
sg18
V/Users/nirum/Library/Fonts/Meslo LG L DZ Regular for Powerline Plus Nerd File Types Mono Plus Pomicons Windows Compatible.otf
p1072
sg20
g21
sbag1
(g8
g3
NtRp1073
(dp1074
g11
g12
sg13
VAurulent Sans Mono Plus Nerd File Types
p1075
sg15
I400
sg16
g12
sg17
g12
sg18
V/Users/nirum/Library/Fonts/AurulentSansMono-Regular Plus Nerd File Types.otf
p1076
sg20
g21
sbag1
(g8
g3
NtRp1077
(dp1078
g11
g12
sg13
VUbuntu Mono derivative Powerline Plus Nerd File Types Mono
p1079
sg15
I400
sg16
g12
sg17
g12
sg18
V/Users/nirum/Library/Fonts/Ubuntu Mono derivative Powerline Plus Nerd File Types Mono.ttf
p1080
sg20
g21
sbag1
(g8
g3
NtRp1081
(dp1082
g11
g12
sg13
VSystem Font
p1083
sg15
I400
sg16
g12
sg17
g12
sg18
V/System/Library/Fonts/SFNSText-Semibold.otf
p1084
sg20
g21
sbag1
(g8
g3
NtRp1085
(dp1086
g11
g45
sg13
VLuxi Serif
p1087
sg15
I700
sg16
g12
sg17
g12
sg18
V/usr/X11R6/lib/X11/fonts/TTF/luxirbi.ttf
p1088
sg20
g21
sbag1
(g8
g3
NtRp1089
(dp1090
g11
g12
sg13
VM+ 1m Plus Nerd File Types
p1091
sg15
I200
sg16
g12
sg17
g12
sg18
V/Users/nirum/Library/Fonts/M+ 1m light Plus Nerd File Types.ttf
p1092
sg20
g21
sbag1
(g8
g3
NtRp1093
(dp1094
g11
g12
sg13
VUbuntu Mono derivative Powerlin
p1095
sg15
I400
sg16
g12
sg17
g12
sg18
V/Users/nirum/Library/Fonts/Ubuntu Mono derivative Powerline Plus Nerd File Types Plus Pomicons Windows Compatible.ttf
p1096
sg20
g21
sbag1
(g8
g3
NtRp1097
(dp1098
g11
g45
sg13
VDejaVu Sans Mono for Powerline Plus Nerd File Types Mono Plus Pomicons
p1099
sg15
I400
sg16
g12
sg17
g12
sg18
V/Users/nirum/Library/Fonts/DejaVu Sans Mono Oblique for Powerline Plus Nerd File Types Mono Plus Pomicons.ttf
p1100
sg20
g21
sbag1
(g8
g3
NtRp1101
(dp1102
g11
g12
sg13
VSTIXIntegralsSm
p1103
sg15
I400
sg16
g12
sg17
g12
sg18
V/Library/Fonts/STIXIntSmReg.otf
p1104
sg20
g21
sbag1
(g8
g3
NtRp1105
(dp1106
g11
g40
sg13
VVerdana
p1107
sg15
I400
sg16
g12
sg17
g12
sg18
V/Library/Fonts/Verdana Italic.ttf
p1108
sg20
g21
sbag1
(g8
g3
NtRp1109
(dp1110
g11
g12
sg13
VSauce Code Powerline PNFT Plus 
p1111
sg15
I400
sg16
g12
sg17
g12
sg18
V/Users/nirum/Library/Fonts/Sauce Code Powerline Plus Nerd File Types Plus Pomicons Windows Compatible.otf
p1112
sg20
g21
sbag1
(g8
g3
NtRp1113
(dp1114
g11
g12
sg13
VMeslo LG L DZ for Powerline Plus Nerd File Types
p1115
sg15
I400
sg16
g12
sg17
g12
sg18
V/Users/nirum/Library/Fonts/Meslo LG L DZ Regular for Powerline Plus Nerd File Types.otf
p1116
sg20
g21
sbag1
(g8
g3
NtRp1117
(dp1118
g11
g12
sg13
VMeslo LG S DZ for Powerline PNF
p1119
sg15
I400
sg16
g12
sg17
g12
sg18
V/Users/nirum/Library/Fonts/Meslo LG S DZ Regular for Powerline Plus Nerd File Types Mono Plus Pomicons Windows Compatible.otf
p1120
sg20
g21
sbag1
(g8
g3
NtRp1121
(dp1122
g11
g12
sg13
VChalkduster
p1123
sg15
I400
sg16
g12
sg17
g12
sg18
V/Library/Fonts/Chalkduster.ttf
p1124
sg20
g21
sbag1
(g8
g3
NtRp1125
(dp1126
g11
g12
sg13
VHeavy Data Plus Nerd File Types Mono
p1127
sg15
I800
sg16
g12
sg17
g12
sg18
V/Users/nirum/Library/Fonts/Heavy Data Plus Nerd File Types Mono.ttf
p1128
sg20
g21
sbag1
(g8
g3
NtRp1129
(dp1130
g11
g12
sg13
VEstrangelo Antioch
p1131
sg15
I400
sg16
g12
sg17
g12
sg18
V/usr/X11/lib/X11/fonts/OTF/SyrCOMAntioch.otf
p1132
sg20
g21
sbag1
(g8
g3
NtRp1133
(dp1134
g11
g12
sg13
VWeibei TC
p1135
sg15
I700
sg16
g12
sg17
g12
sg18
V/Library/Fonts/WeibeiTC-Bold.otf
p1136
sg20
g21
sbag1
(g8
g3
NtRp1137
(dp1138
g11
g12
sg13
VM+ 1m PNFT Mono Plus Pomicons
p1139
sg15
I700
sg16
g12
sg17
g12
sg18
V/Users/nirum/Library/Fonts/M+ 1m bold Plus Nerd File Types Mono Plus Pomicons Windows Compatible.ttf
p1140
sg20
g21
sbag1
(g8
g3
NtRp1141
(dp1142
g11
g12
sg13
VLekton PNFT Mono Plus Pomicons
p1143
sg15
I700
sg16
g12
sg17
g12
sg18
V/Users/nirum/Library/Fonts/Lekton-Bold Plus Nerd File Types Mono Plus Pomicons Windows Compatible.ttf
p1144
sg20
g21
sbag1
(g8
g3
NtRp1145
(dp1146
g11
g12
sg13
VSerto Batnan
p1147
sg15
I700
sg16
g12
sg17
g12
sg18
V/usr/X11/lib/X11/fonts/OTF/SyrCOMBatnanBold.otf
p1148
sg20
g21
sbag1
(g8
g3
NtRp1149
(dp1150
g11
g12
sg13
VIBM 3270 PNFT Plus Pomicons
p1151
sg15
I500
sg16
g12
sg17
g12
sg18
V/Users/nirum/Library/Fonts/3270-Medium Plus Nerd File Types Plus Pomicons Windows Compatible.otf
p1152
sg20
g21
sbag1
(g8
g3
NtRp1153
(dp1154
g11
g12
sg13
VSerto Jerusalem
p1155
sg15
I700
sg16
g12
sg17
g12
sg18
V/usr/X11/lib/X11/fonts/OTF/SyrCOMJerusalemBold.otf
p1156
sg20
g21
sbag1
(g8
g3
NtRp1157
(dp1158
g11
g12
sg13
VIBM 3270 Narrow Plus Nerd File Types
p1159
sg15
I400
sg16
g183
sg17
g12
sg18
V/Users/nirum/Library/Fonts/3270 Narrow Plus Nerd File Types.ttf
p1160
sg20
g21
sbag1
(g8
g3
NtRp1161
(dp1162
g11
g12
sg13
VSTIXIntegralsUp
p1163
sg15
I400
sg16
g12
sg17
g12
sg18
V/Library/Fonts/STIXIntUpReg.otf
p1164
sg20
g21
sbag1
(g8
g3
NtRp1165
(dp1166
g11
g12
sg13
VBitstream Vera Sans Mono Plus Nerd File Types
p1167
sg15
I400
sg16
g12
sg17
g12
sg18
V/Users/nirum/Library/Fonts/Bitstream Vera Sans Mono Plus Nerd File Types.ttf
p1168
sg20
g21
sbag1
(g8
g3
NtRp1169
(dp1170
g11
g12
sg13
VM+ 1m Plus Nerd File Types Mono Plus Pomicons
p1171
sg15
I500
sg16
g12
sg17
g12
sg18
V/Users/nirum/Library/Fonts/M+ 1m medium Plus Nerd File Types Mono Plus Pomicons.ttf
p1172
sg20
g21
sbag1
(g8
g3
NtRp1173
(dp1174
g11
g12
sg13
VDroid Sans Mono for Powerline Plus Nerd File Types Mono Plus Pomicons
p1175
sg15
I400
sg16
g12
sg17
g12
sg18
V/Users/nirum/Library/Fonts/Droid Sans Mono for Powerline Plus Nerd File Types Mono Plus Pomicons.otf
p1176
sg20
g21
sbag1
(g8
g3
NtRp1177
(dp1178
g11
g12
sg13
VBig Caslon
p1179
sg15
I500
sg16
g12
sg17
g12
sg18
V/Library/Fonts/BigCaslon.ttf
p1180
sg20
g21
sbag1
(g8
g3
NtRp1181
(dp1182
g11
g12
sg13
VBitstream Vera Sans Mono Plus Nerd File Types Mono
p1183
sg15
I400
sg16
g12
sg17
g12
sg18
V/Users/nirum/Library/Fonts/Bitstream Vera Sans Mono Plus Nerd File Types Mono.ttf
p1184
sg20
g21
sbag1
(g8
g3
NtRp1185
(dp1186
g11
g12
sg13
VSystem Font
p1187
sg15
I400
sg16
g12
sg17
g12
sg18
V/System/Library/Fonts/SFNSText-Heavy.otf
p1188
sg20
g21
sbag1
(g8
g3
NtRp1189
(dp1190
g11
g12
sg13
VProggyCleanTT PNFT
p1191
sg15
I400
sg16
g12
sg17
g12
sg18
V/Users/nirum/Library/Fonts/ProggyCleanTT Plus Nerd File Types Windows Compatible.ttf
p1192
sg20
g21
sbag1
(g8
g3
NtRp1193
(dp1194
g11
g12
sg13
VAyuthaya
p1195
sg15
I400
sg16
g12
sg17
g12
sg18
V/Library/Fonts/Ayuthaya.ttf
p1196
sg20
g21
sbag1
(g8
g3
NtRp1197
(dp1198
g11
g12
sg13
VMeslo LG M DZ for Powerline PNF
p1199
sg15
I400
sg16
g12
sg17
g12
sg18
V/Users/nirum/Library/Fonts/Meslo LG M DZ Regular for Powerline Plus Nerd File Types Mono Windows Compatible.otf
p1200
sg20
g21
sbag1
(g8
g3
NtRp1201
(dp1202
g11
g12
sg13
VDroid Sans Mono for Powerline P
p1203
sg15
I400
sg16
g12
sg17
g12
sg18
V/Users/nirum/Library/Fonts/Droid Sans Mono for Powerline Plus Nerd File Types Windows Compatible.otf
p1204
sg20
g21
sbag1
(g8
g3
NtRp1205
(dp1206
g11
g12
sg13
Vmonofur for Powerline Plus Nerd File Types
p1207
sg15
I700
sg16
g12
sg17
g12
sg18
V/Users/nirum/Library/Fonts/monofur   bold for Powerline Plus Nerd File Types.ttf
p1208
sg20
g21
sbag1
(g8
g3
NtRp1209
(dp1210
g11
g12
sg13
VFira Mono Medium for Powerline Plus Nerd File Types Mono Plus Pomicons
p1211
sg15
I500
sg16
g12
sg17
g12
sg18
V/Users/nirum/Library/Fonts/Fira Mono Medium for Powerline Plus Nerd File Types Mono Plus Pomicons.otf
p1212
sg20
g21
sbag1
(g8
g3
NtRp1213
(dp1214
g11
g12
sg13
VIBM 3270 Narrow PNFT Mono Plus 
p1215
sg15
I400
sg16
g183
sg17
g12
sg18
V/Users/nirum/Library/Fonts/3270 Narrow Plus Nerd File Types Mono Plus Pomicons Windows Compatible.otf
p1216
sg20
g21
sbag1
(g8
g3
NtRp1217
(dp1218
g11
g12
sg13
VIBM 3270 Narrow PNFT Plus Pomic
p1219
sg15
I400
sg16
g183
sg17
g12
sg18
V/Users/nirum/Library/Fonts/3270 Narrow Plus Nerd File Types Plus Pomicons Windows Compatible.ttf
p1220
sg20
g21
sbag1
(g8
g3
NtRp1221
(dp1222
g11
g12
sg13
VMeslo LG M for Powerline PNFT M
p1223
sg15
I400
sg16
g12
sg17
g12
sg18
V/Users/nirum/Library/Fonts/Meslo LG M Regular for Powerline Plus Nerd File Types Mono Plus Pomicons Windows Compatible.otf
p1224
sg20
g21
sbag1
(g8
g3
NtRp1225
(dp1226
g11
g12
sg13
VAndale Mono
p1227
sg15
I400
sg16
g12
sg17
g12
sg18
V/Library/Fonts/Andale Mono.ttf
p1228
sg20
g21
sbag1
(g8
g3
NtRp1229
(dp1230
g11
g12
sg13
VSilom
p1231
sg15
I400
sg16
g12
sg17
g12
sg18
V/Library/Fonts/Silom.ttf
p1232
sg20
g21
sbag1
(g8
g3
NtRp1233
(dp1234
g11
g12
sg13
VWeibei SC
p1235
sg15
I700
sg16
g12
sg17
g12
sg18
V/Library/Fonts/WeibeiSC-Bold.otf
p1236
sg20
g21
sbag1
(g8
g3
NtRp1237
(dp1238
g11
g45
sg13
VLuxi Sans
p1239
sg15
I400
sg16
g12
sg17
g12
sg18
V/usr/X11R6/lib/X11/fonts/TTF/luxisri.ttf
p1240
sg20
g21
sbag1
(g8
g3
NtRp1241
(dp1242
g11
g12
sg13
VM+ 1m PNFT Mono
p1243
sg15
I400
sg16
g12
sg17
g12
sg18
V/Users/nirum/Library/Fonts/M+ 1m thin Plus Nerd File Types Mono Windows Compatible.ttf
p1244
sg20
g21
sbag1
(g8
g3
NtRp1245
(dp1246
g11
g12
sg13
VMeslo LG S DZ for Powerline Plus Nerd File Types Mono Plus Pomicons
p1247
sg15
I400
sg16
g12
sg17
g12
sg18
V/Users/nirum/Library/Fonts/Meslo LG S DZ Regular for Powerline Plus Nerd File Types Mono Plus Pomicons.otf
p1248
sg20
g21
sbag1
(g8
g3
NtRp1249
(dp1250
g11
g12
sg13
VLuxi Mono
p1251
sg15
I400
sg16
g12
sg17
g12
sg18
V/usr/X11/lib/X11/fonts/TTF/luximr.ttf
p1252
sg20
g21
sbag1
(g8
g3
NtRp1253
(dp1254
g11
g12
sg13
VM+ 1m PNFT Mono Plus Pomicons
p1255
sg15
I200
sg16
g12
sg17
g12
sg18
V/Users/nirum/Library/Fonts/M+ 1m light Plus Nerd File Types Mono Plus Pomicons Windows Compatible.ttf
p1256
sg20
g21
sbag1
(g8
g3
NtRp1257
(dp1258
g11
g12
sg13
VFira Mono Medium for Powerline Plus Nerd File Types
p1259
sg15
I500
sg16
g12
sg17
g12
sg18
V/Users/nirum/Library/Fonts/Fira Mono Medium for Powerline Plus Nerd File Types.otf
p1260
sg20
g21
sbag1
(g8
g3
NtRp1261
(dp1262
g11
g40
sg13
VLekton PNFT Plus Pomicons
p1263
sg15
I400
sg16
g12
sg17
g12
sg18
V/Users/nirum/Library/Fonts/Lekton-Italic Plus Nerd File Types Plus Pomicons Windows Compatible.ttf
p1264
sg20
g21
sbag1
(g8
g3
NtRp1265
(dp1266
g11
g12
sg13
VLao Sangam MN
p1267
sg15
I400
sg16
g12
sg17
g12
sg18
V/Library/Fonts/Lao Sangam MN.ttf
p1268
sg20
g21
sbag1
(g8
g3
NtRp1269
(dp1270
g11
g12
sg13
VGoha-Tibeb Zemen
p1271
sg15
I400
sg16
g12
sg17
g12
sg18
V/usr/X11R6/lib/X11/fonts/TTF/GohaTibebZemen.ttf
p1272
sg20
g21
sbag1
(g8
g3
NtRp1273
(dp1274
g11
g12
sg13
VUbuntu Mono PNFT
p1275
sg15
I400
sg16
g12
sg17
g12
sg18
V/Users/nirum/Library/Fonts/Ubuntu Mono Plus Nerd File Types Windows Compatible.ttf
p1276
sg20
g21
sbag1
(g8
g3
NtRp1277
(dp1278
g11
g12
sg13
VProFontWindows PNFT
p1279
sg15
I400
sg16
g12
sg17
g12
sg18
V/Users/nirum/Library/Fonts/ProFontWindows Plus Nerd File Types Windows Compatible.ttf
p1280
sg20
g21
sbag1
(g8
g3
NtRp1281
(dp1282
g11
g12
sg13
VEstrangelo Nisibin Outline
p1283
sg15
I400
sg16
g12
sg17
g12
sg18
V/usr/X11/lib/X11/fonts/OTF/SyrCOMNisibinOutline.otf
p1284
sg20
g21
sbag1
(g8
g3
NtRp1285
(dp1286
g11
g12
sg13
VBodoni Ornaments
p1287
sg15
I400
sg16
g12
sg17
g12
sg18
V/Library/Fonts/Bodoni Ornaments.ttf
p1288
sg20
g21
sbag1
(g8
g3
NtRp1289
(dp1290
g11
g12
sg13
VFira Mono Medium for Powerline 
p1291
sg15
I500
sg16
g12
sg17
g12
sg18
V/Users/nirum/Library/Fonts/Fira Mono Medium for Powerline Plus Nerd File Types Plus Pomicons Windows Compatible.otf
p1292
sg20
g21
sbag1
(g8
g3
NtRp1293
(dp1294
g11
g12
sg13
VUbuntu Mono PNFT Plus Pomicons
p1295
sg15
I400
sg16
g12
sg17
g12
sg18
V/Users/nirum/Library/Fonts/Ubuntu Mono Plus Nerd File Types Plus Pomicons Windows Compatible.ttf
p1296
sg20
g21
sbag1
(g8
g3
NtRp1297
(dp1298
g11
g12
sg13
VSystem Font
p1299
sg15
I400
sg16
g12
sg17
g12
sg18
V/System/Library/Fonts/SFNSDisplay-Semibold.otf
p1300
sg20
g21
sbag1
(g8
g3
NtRp1301
(dp1302
g11
g12
sg13
VIBM 3270 Narrow PNFT Mono
p1303
sg15
I400
sg16
g183
sg17
g12
sg18
V/Users/nirum/Library/Fonts/3270 Narrow Plus Nerd File Types Mono Windows Compatible.ttf
p1304
sg20
g21
sbag1
(g8
g3
NtRp1305
(dp1306
g11
g12
sg13
VProFontWindows PNFT Mono Plus P
p1307
sg15
I400
sg16
g12
sg17
g12
sg18
V/Users/nirum/Library/Fonts/ProFontWindows Plus Nerd File Types Mono Plus Pomicons Windows Compatible.ttf
p1308
sg20
g21
sbag1
(g8
g3
NtRp1309
(dp1310
g11
g12
sg13
VLekton Plus Nerd File Types Mono Plus Pomicons
p1311
sg15
I400
sg16
g12
sg17
g12
sg18
V/Users/nirum/Library/Fonts/Lekton Plus Nerd File Types Mono Plus Pomicons.ttf
p1312
sg20
g21
sbag1
(g8
g3
NtRp1313
(dp1314
g11
g12
sg13
VLekton Plus Nerd File Types
p1315
sg15
I400
sg16
g12
sg17
g12
sg18
V/Users/nirum/Library/Fonts/Lekton Plus Nerd File Types.ttf
p1316
sg20
g21
sbag1
(g8
g3
NtRp1317
(dp1318
g11
g12
sg13
VLiteration Mono Powerline PNFT
p1319
sg15
I400
sg16
g12
sg17
g12
sg18
V/Users/nirum/Library/Fonts/Literation Mono Powerline Plus Nerd File Types Windows Compatible.ttf
p1320
sg20
g21
sbag1
(g8
g3
NtRp1321
(dp1322
g11
g12
sg13
VIBM 3270 Plus Nerd File Types Plus Pomicons
p1323
sg15
I500
sg16
g12
sg17
g12
sg18
V/Users/nirum/Library/Fonts/3270-Medium Plus Nerd File Types Plus Pomicons.ttf
p1324
sg20
g21
sbag1
(g8
g3
NtRp1325
(dp1326
g11
g12
sg13
VLiteration Mono Powerline PNFT 
p1327
sg15
I400
sg16
g12
sg17
g12
sg18
V/Users/nirum/Library/Fonts/Literation Mono Powerline Plus Nerd File Types Mono Plus Pomicons Windows Compatible.ttf
p1328
sg20
g21
sbag1
(g8
g3
NtRp1329
(dp1330
g11
g12
sg13
VVerdana
p1331
sg15
I700
sg16
g12
sg17
g12
sg18
V/Library/Fonts/Verdana Bold.ttf
p1332
sg20
g21
sbag1
(g8
g3
NtRp1333
(dp1334
g11
g12
sg13
VM+ 1m Plus Nerd File Types Mono Plus Pomicons
p1335
sg15
I200
sg16
g12
sg17
g12
sg18
V/Users/nirum/Library/Fonts/M+ 1m light Plus Nerd File Types Mono Plus Pomicons.ttf
p1336
sg20
g21
sbag1
(g8
g3
NtRp1337
(dp1338
g11
g12
sg13
VSTIXSizeThreeSym
p1339
sg15
I400
sg16
g12
sg17
g12
sg18
V/Library/Fonts/STIXSizThreeSymReg.otf
p1340
sg20
g21
sbag1
(g8
g3
NtRp1341
(dp1342
g11
g12
sg13
VDIN Condensed
p1343
sg15
I700
sg16
g183
sg17
g12
sg18
V/Library/Fonts/DIN Condensed Bold.ttf
p1344
sg20
g21
sbag1
(g8
g3
NtRp1345
(dp1346
g11
g12
sg13
VArial
p1347
sg15
I400
sg16
g12
sg17
g12
sg18
V/Library/Fonts/Arial.ttf
p1348
sg20
g21
sbag1
(g8
g3
NtRp1349
(dp1350
g11
g12
sg13
VAppleGothic
p1351
sg15
I400
sg16
g12
sg17
g12
sg18
V/Library/Fonts/AppleGothic.ttf
p1352
sg20
g21
sbag1
(g8
g3
NtRp1353
(dp1354
g11
g40
sg13
VLekton PNFT Mono Plus Pomicons
p1355
sg15
I400
sg16
g12
sg17
g12
sg18
V/Users/nirum/Library/Fonts/Lekton-Italic Plus Nerd File Types Mono Plus Pomicons Windows Compatible.ttf
p1356
sg20
g21
sbag1
(g8
g3
NtRp1357
(dp1358
g11
g12
sg13
VSauce Code Powerline Plus Nerd File Types
p1359
sg15
I400
sg16
g12
sg17
g12
sg18
V/Users/nirum/Library/Fonts/Sauce Code Powerline Plus Nerd File Types.otf
p1360
sg20
g21
sbag1
(g8
g3
NtRp1361
(dp1362
g11
g12
sg13
VBitstream Vera Sans Mono Plus Nerd File Types Mono Plus Pomicons
p1363
sg15
I700
sg16
g12
sg17
g12
sg18
V/Users/nirum/Library/Fonts/Bitstream Vera Sans Mono Bold Plus Nerd File Types Mono Plus Pomicons.ttf
p1364
sg20
g21
sbag1
(g8
g3
NtRp1365
(dp1366
g11
g12
sg13
VArial Narrow
p1367
sg15
I400
sg16
g183
sg17
g12
sg18
V/Library/Fonts/Arial Narrow.ttf
p1368
sg20
g21
sbag1
(g8
g3
NtRp1369
(dp1370
g11
g12
sg13
VAurulent Sans Mono PNFT Mono
p1371
sg15
I400
sg16
g12
sg17
g12
sg18
V/Users/nirum/Library/Fonts/AurulentSansMono-Regular Plus Nerd File Types Mono Windows Compatible.otf
p1372
sg20
g21
sbag1
(g8
g3
NtRp1373
(dp1374
g11
g12
sg13
VBitstream Vera Sans Mono Plus Nerd File Types Plus Pomicons
p1375
sg15
I400
sg16
g12
sg17
g12
sg18
V/Users/nirum/Library/Fonts/Bitstream Vera Sans Mono Plus Nerd File Types Plus Pomicons.ttf
p1376
sg20
g21
sbag1
(g8
g3
NtRp1377
(dp1378
g11
g12
sg13
VIBM 3270 Plus Nerd File Types Plus Pomicons
p1379
sg15
I500
sg16
g12
sg17
g12
sg18
V/Users/nirum/Library/Fonts/3270-Medium Plus Nerd File Types Plus Pomicons.otf
p1380
sg20
g21
sbag1
(g8
g3
NtRp1381
(dp1382
g11
g12
sg13
VMeslo LG L DZ for Powerline PNF
p1383
sg15
I400
sg16
g12
sg17
g12
sg18
V/Users/nirum/Library/Fonts/Meslo LG L DZ Regular for Powerline Plus Nerd File Types Plus Pomicons Windows Compatible.otf
p1384
sg20
g21
sbag1
(g8
g3
NtRp1385
(dp1386
g11
g12
sg13
VIBM 3270 PNFT Mono Plus Pomicon
p1387
sg15
I500
sg16
g12
sg17
g12
sg18
V/Users/nirum/Library/Fonts/3270-Medium Plus Nerd File Types Mono Plus Pomicons Windows Compatible.ttf
p1388
sg20
g21
sbag1
(g8
g3
NtRp1389
(dp1390
g11
g12
sg13
VFira Mono for Powerline PNFT Mo
p1391
sg15
I400
sg16
g12
sg17
g12
sg18
V/Users/nirum/Library/Fonts/Fira Mono Regular for Powerline Plus Nerd File Types Mono Windows Compatible.otf
p1392
sg20
g21
sbag1
(g8
g3
NtRp1393
(dp1394
g11
g12
sg13
VFira Mono Medium for Powerline 
p1395
sg15
I500
sg16
g12
sg17
g12
sg18
V/Users/nirum/Library/Fonts/Fira Mono Medium for Powerline Plus Nerd File Types Mono Windows Compatible.otf
p1396
sg20
g21
sbag1
(g8
g3
NtRp1397
(dp1398
g11
g12
sg13
VMeslo LG S for Powerline Plus Nerd File Types Mono
p1399
sg15
I400
sg16
g12
sg17
g12
sg18
V/Users/nirum/Library/Fonts/Meslo LG S Regular for Powerline Plus Nerd File Types Mono.otf
p1400
sg20
g21
sbag1
(g8
g3
NtRp1401
(dp1402
g11
g12
sg13
VIBM 3270 Narrow PNFT
p1403
sg15
I400
sg16
g183
sg17
g12
sg18
V/Users/nirum/Library/Fonts/3270 Narrow Plus Nerd File Types Windows Compatible.ttf
p1404
sg20
g21
sbag1
(g8
g3
NtRp1405
(dp1406
g11
g12
sg13
VSauce Code Powerline Plus Nerd File Types Mono Plus Pomicons
p1407
sg15
I400
sg16
g12
sg17
g12
sg18
V/Users/nirum/Library/Fonts/Sauce Code Powerline Plus Nerd File Types Mono Plus Pomicons.otf
p1408
sg20
g21
sbag1
(g8
g3
NtRp1409
(dp1410
g11
g12
sg13
VSystem Font
p1411
sg15
I400
sg16
g12
sg17
g12
sg18
V/System/Library/Fonts/SFNSText-Regular.otf
p1412
sg20
g21
sbag1
(g8
g3
NtRp1413
(dp1414
g11
g12
sg13
VSerto Mardin
p1415
sg15
I700
sg16
g12
sg17
g12
sg18
V/usr/X11/lib/X11/fonts/OTF/SyrCOMMardinBold.otf
p1416
sg20
g21
sbag1
(g8
g3
NtRp1417
(dp1418
g11
g45
sg13
VDejaVu Sans Mono for Powerline Plus Nerd File Types Plus Pomicons
p1419
sg15
I700
sg16
g12
sg17
g12
sg18
V/Users/nirum/Library/Fonts/DejaVu Sans Mono Bold Oblique for Powerline Plus Nerd File Types Plus Pomicons.ttf
p1420
sg20
g21
sbag1
(g8
g3
NtRp1421
(dp1422
g11
g12
sg13
VProFontWindows PNFT Plus Pomico
p1423
sg15
I400
sg16
g12
sg17
g12
sg18
V/Users/nirum/Library/Fonts/ProFontWindows Plus Nerd File Types Plus Pomicons Windows Compatible.ttf
p1424
sg20
g21
sbag1
(g8
g3
NtRp1425
(dp1426
g11
g45
sg13
VDejaVu Sans Mono for Powerline 
p1427
sg15
I400
sg16
g12
sg17
g12
sg18
V/Users/nirum/Library/Fonts/DejaVu Sans Mono Oblique for Powerline Plus Nerd File Types Windows Compatible.ttf
p1428
sg20
g21
sbag1
(g8
g3
NtRp1429
(dp1430
g11
g12
sg13
VArial Narrow
p1431
sg15
I700
sg16
g183
sg17
g12
sg18
V/Library/Fonts/Arial Narrow Bold.ttf
p1432
sg20
g21
sbag1
(g8
g3
NtRp1433
(dp1434
g11
g40
sg13
VTimes New Roman
p1435
sg15
I500
sg16
g12
sg17
g12
sg18
V/Library/Fonts/Times New Roman Italic.ttf
p1436
sg20
g21
sbag1
(g8
g3
NtRp1437
(dp1438
g11
g12
sg13
VSystem Font
p1439
sg15
I400
sg16
g12
sg17
g12
sg18
V/System/Library/Fonts/SFNSText-RegularItalic.otf
p1440
sg20
g21
sbag1
(g8
g3
NtRp1441
(dp1442
g11
g40
sg13
VLekton PNFT
p1443
sg15
I400
sg16
g12
sg17
g12
sg18
V/Users/nirum/Library/Fonts/Lekton-Italic Plus Nerd File Types Windows Compatible.ttf
p1444
sg20
g21
sbag1
(g8
g3
NtRp1445
(dp1446
g11
g12
sg13
VGeorgia
p1447
sg15
I400
sg16
g12
sg17
g12
sg18
V/Library/Fonts/Georgia.ttf
p1448
sg20
g21
sbag1
(g8
g3
NtRp1449
(dp1450
g11
g12
sg13
VTrebuchet MS
p1451
sg15
I700
sg16
g12
sg17
g12
sg18
V/Library/Fonts/Trebuchet MS Bold.ttf
p1452
sg20
g21
sbag1
(g8
g3
NtRp1453
(dp1454
g11
g40
sg13
Vmonofur for Powerline Plus Nerd File Types
p1455
sg15
I400
sg16
g12
sg17
g12
sg18
V/Users/nirum/Library/Fonts/monofur   italic for Powerline Plus Nerd File Types.ttf
p1456
sg20
g21
sbag1
(g8
g3
NtRp1457
(dp1458
g11
g12
sg13
VMeslo LG L for Powerline PNFT P
p1459
sg15
I400
sg16
g12
sg17
g12
sg18
V/Users/nirum/Library/Fonts/Meslo LG L Regular for Powerline Plus Nerd File Types Plus Pomicons Windows Compatible.otf
p1460
sg20
g21
sbag1
(g8
g3
NtRp1461
(dp1462
g11
g12
sg13
VM+ 1m Plus Nerd File Types
p1463
sg15
I400
sg16
g12
sg17
g12
sg18
V/Users/nirum/Library/Fonts/M+ 1m thin Plus Nerd File Types.ttf
p1464
sg20
g21
sbag1
(g8
g3
NtRp1465
(dp1466
g11
g12
sg13
VM+ 1m PNFT Plus Pomicons
p1467
sg15
I200
sg16
g12
sg17
g12
sg18
V/Users/nirum/Library/Fonts/M+ 1m light Plus Nerd File Types Plus Pomicons Windows Compatible.ttf
p1468
sg20
g21
sbag1
(g8
g3
NtRp1469
(dp1470
g11
g40
sg13
VTimes New Roman
p1471
sg15
I700
sg16
g12
sg17
g12
sg18
V/Library/Fonts/Times New Roman Bold Italic.ttf
p1472
sg20
g21
sbag1
(g8
g3
NtRp1473
(dp1474
g11
g12
sg13
VAurulent Sans Mono PNFT Mono Pl
p1475
sg15
I400
sg16
g12
sg17
g12
sg18
V/Users/nirum/Library/Fonts/AurulentSansMono-Regular Plus Nerd File Types Mono Plus Pomicons Windows Compatible.otf
p1476
sg20
g21
sbag1
(g8
g3
NtRp1477
(dp1478
g11
g40
sg13
VArial Narrow
p1479
sg15
I400
sg16
g183
sg17
g12
sg18
V/Library/Fonts/Arial Narrow Italic.ttf
p1480
sg20
g21
sbag1
(g8
g3
NtRp1481
(dp1482
g11
g45
sg13
VDejaVu Sans Mono for Powerline 
p1483
sg15
I400
sg16
g12
sg17
g12
sg18
V/Users/nirum/Library/Fonts/DejaVu Sans Mono Oblique for Powerline Plus Nerd File Types Mono Windows Compatible.ttf
p1484
sg20
g21
sbag1
(g8
g3
NtRp1485
(dp1486
g11
g12
sg13
Vmonofur for Powerline PNFT Mono
p1487
sg15
I400
sg16
g12
sg17
g12
sg18
V/Users/nirum/Library/Fonts/monofur for Powerline Plus Nerd File Types Mono Plus Pomicons Windows Compatible.ttf
p1488
sg20
g21
sbag1
(g8
g3
NtRp1489
(dp1490
g11
g12
sg13
VPlantagenet Cherokee
p1491
sg15
I400
sg16
g12
sg17
g12
sg18
V/Library/Fonts/PlantagenetCherokee.ttf
p1492
sg20
g21
sbag1
(g8
g3
NtRp1493
(dp1494
g11
g12
sg13
Vmonofur for Powerline PNFT Mono
p1495
sg15
I400
sg16
g12
sg17
g12
sg18
V/Users/nirum/Library/Fonts/monofur for Powerline Plus Nerd File Types Mono Windows Compatible.ttf
p1496
sg20
g21
sbag1
(g8
g3
NtRp1497
(dp1498
g11
g12
sg13
VProggyCleanTT Plus Nerd File Types
p1499
sg15
I400
sg16
g12
sg17
g12
sg18
V/Users/nirum/Library/Fonts/ProggyCleanTT Plus Nerd File Types.ttf
p1500
sg20
g21
sbag1
(g8
g3
NtRp1501
(dp1502
g11
g12
sg13
VAurulent Sans Mono Plus Nerd File Types Mono
p1503
sg15
I400
sg16
g12
sg17
g12
sg18
V/Users/nirum/Library/Fonts/AurulentSansMono-Regular Plus Nerd File Types Mono.otf
p1504
sg20
g21
sbag1
(g8
g3
NtRp1505
(dp1506
g11
g45
sg13
VBitstream Vera Sans Mono PNFT P
p1507
sg15
I400
sg16
g12
sg17
g12
sg18
V/Users/nirum/Library/Fonts/Bitstream Vera Sans Mono Oblique Plus Nerd File Types Plus Pomicons Windows Compatible.ttf
p1508
sg20
g21
sbag1
(g8
g3
NtRp1509
(dp1510
g11
g12
sg13
VSTIXVariants
p1511
sg15
I400
sg16
g12
sg17
g12
sg18
V/Library/Fonts/STIXVar.otf
p1512
sg20
g21
sbag1
(g8
g3
NtRp1513
(dp1514
g11
g12
sg13
VMishafi
p1515
sg15
I400
sg16
g12
sg17
g12
sg18
V/Library/Fonts/Mishafi.ttf
p1516
sg20
g21
sbag1
(g8
g3
NtRp1517
(dp1518
g11
g12
sg13
VBitstream Vera Sans Mono Plus Nerd File Types Plus Pomicons
p1519
sg15
I700
sg16
g12
sg17
g12
sg18
V/Users/nirum/Library/Fonts/Bitstream Vera Sans Mono Bold Plus Nerd File Types Plus Pomicons.ttf
p1520
sg20
g21
sbag1
(g8
g3
NtRp1521
(dp1522
g11
g12
sg13
VSystem Font
p1523
sg15
I400
sg16
g12
sg17
g12
sg18
V/System/Library/Fonts/SFNSText-BoldItalic.otf
p1524
sg20
g21
sbag1
(g8
g3
NtRp1525
(dp1526
g11
g12
sg13
VSystem Font
p1527
sg15
I400
sg16
g12
sg17
g12
sg18
V/System/Library/Fonts/SFNSText-BoldItalicG1.otf
p1528
sg20
g21
sbag1
(g8
g3
NtRp1529
(dp1530
g11
g12
sg13
VBitstream Vera Sans Mono PNFT
p1531
sg15
I700
sg16
g12
sg17
g12
sg18
V/Users/nirum/Library/Fonts/Bitstream Vera Sans Mono Bold Plus Nerd File Types Windows Compatible.ttf
p1532
sg20
g21
sbag1
(g8
g3
NtRp1533
(dp1534
g11
g45
sg13
VDejaVu Sans Mono for Powerline 
p1535
sg15
I700
sg16
g12
sg17
g12
sg18
V/Users/nirum/Library/Fonts/DejaVu Sans Mono Bold Oblique for Powerline Plus Nerd File Types Mono Windows Compatible.ttf
p1536
sg20
g21
sbag1
(g8
g3
NtRp1537
(dp1538
g11
g12
sg13
VSkia
p1539
sg15
I400
sg16
g12
sg17
g12
sg18
V/Library/Fonts/Skia.ttf
p1540
sg20
g21
sbag1
(g8
g3
NtRp1541
(dp1542
g11
g12
sg13
Vmonofur for Powerline Plus Nerd File Types Mono
p1543
sg15
I400
sg16
g12
sg17
g12
sg18
V/Users/nirum/Library/Fonts/monofur for Powerline Plus Nerd File Types Mono.ttf
p1544
sg20
g21
sbag1
(g8
g3
NtRp1545
(dp1546
g11
g12
sg13
VAurulent Sans Mono Plus Nerd File Types Mono Plus Pomicons
p1547
sg15
I400
sg16
g12
sg17
g12
sg18
V/Users/nirum/Library/Fonts/AurulentSansMono-Regular Plus Nerd File Types Mono Plus Pomicons.otf
p1548
sg20
g21
sbag1
(g8
g3
NtRp1549
(dp1550
g11
g12
sg13
Vmonofur for Powerline Plus Nerd File Types Mono
p1551
sg15
I700
sg16
g12
sg17
g12
sg18
V/Users/nirum/Library/Fonts/monofur   bold for Powerline Plus Nerd File Types Mono.ttf
p1552
sg20
g21
sbag1
(g8
g3
NtRp1553
(dp1554
g11
g12
sg13
VSystem Font
p1555
sg15
I400
sg16
g12
sg17
g12
sg18
V/System/Library/Fonts/SFNSText-RegularG3.otf
p1556
sg20
g21
sbag1
(g8
g3
NtRp1557
(dp1558
g11
g12
sg13
VLuxi Sans
p1559
sg15
I400
sg16
g12
sg17
g12
sg18
V/usr/X11/lib/X11/fonts/TTF/luxisr.ttf
p1560
sg20
g21
sbag1
(g8
g3
NtRp1561
(dp1562
g11
g12
sg13
VLekton PNFT
p1563
sg15
I700
sg16
g12
sg17
g12
sg18
V/Users/nirum/Library/Fonts/Lekton-Bold Plus Nerd File Types Windows Compatible.ttf
p1564
sg20
g21
sbag1
(g8
g3
NtRp1565
(dp1566
g11
g12
sg13
VLekton PNFT
p1567
sg15
I400
sg16
g12
sg17
g12
sg18
V/Users/nirum/Library/Fonts/Lekton Plus Nerd File Types Windows Compatible.ttf
p1568
sg20
g21
sbag1
(g8
g3
NtRp1569
(dp1570
g11
g12
sg13
VM+ 1m Plus Nerd File Types Mono
p1571
sg15
I500
sg16
g12
sg17
g12
sg18
V/Users/nirum/Library/Fonts/M+ 1m medium Plus Nerd File Types Mono.ttf
p1572
sg20
g21
sbag1
(g8
g3
NtRp1573
(dp1574
g11
g12
sg13
VIBM 3270 Plus Nerd File Types Mono
p1575
sg15
I500
sg16
g12
sg17
g12
sg18
V/Users/nirum/Library/Fonts/3270-Medium Plus Nerd File Types Mono.otf
p1576
sg20
g21
sbag1
(g8
g3
NtRp1577
(dp1578
g11
g12
sg13
VUbuntu Mono Plus Nerd File Types Plus Pomicons
p1579
sg15
I400
sg16
g12
sg17
g12
sg18
V/Users/nirum/Library/Fonts/Ubuntu Mono Plus Nerd File Types Plus Pomicons.ttf
p1580
sg20
g21
sbag1
(g8
g3
NtRp1581
(dp1582
g11
g40
sg13
VCourier New
p1583
sg15
I700
sg16
g12
sg17
g12
sg18
V/Library/Fonts/Courier New Bold Italic.ttf
p1584
sg20
g21
sbag1
(g8
g3
NtRp1585
(dp1586
g11
g45
sg13
VDejaVu Sans Mono for Powerline Plus Nerd File Types
p1587
sg15
I400
sg16
g12
sg17
g12
sg18
V/Users/nirum/Library/Fonts/DejaVu Sans Mono Oblique for Powerline Plus Nerd File Types.ttf
p1588
sg20
g21
sbag1
(g8
g3
NtRp1589
(dp1590
g11
g45
sg13
VLuxi Sans
p1591
sg15
I700
sg16
g12
sg17
g12
sg18
V/usr/X11R6/lib/X11/fonts/TTF/luxisbi.ttf
p1592
sg20
g21
sbag1
(g8
g3
NtRp1593
(dp1594
g11
g12
sg13
VArial Rounded MT Bold
p1595
sg15
I700
sg16
g12
sg17
g12
sg18
V/Library/Fonts/Arial Rounded Bold.ttf
p1596
sg20
g21
sbag1
(g8
g3
NtRp1597
(dp1598
g11
g12
sg13
VUbuntu Mono Plus Nerd File Types
p1599
sg15
I400
sg16
g12
sg17
g12
sg18
V/Users/nirum/Library/Fonts/Ubuntu Mono Plus Nerd File Types.ttf
p1600
sg20
g21
sbag1
(g8
g3
NtRp1601
(dp1602
g11
g12
sg13
VDroid Sans Mono for Powerline Plus Nerd File Types Plus Pomicons
p1603
sg15
I400
sg16
g12
sg17
g12
sg18
V/Users/nirum/Library/Fonts/Droid Sans Mono for Powerline Plus Nerd File Types Plus Pomicons.otf
p1604
sg20
g21
sbag1
(g8
g3
NtRp1605
(dp1606
g11
g40
sg13
VLekton Plus Nerd File Types Plus Pomicons
p1607
sg15
I400
sg16
g12
sg17
g12
sg18
V/Users/nirum/Library/Fonts/Lekton-Italic Plus Nerd File Types Plus Pomicons.ttf
p1608
sg20
g21
sbag1
(g8
g3
NtRp1609
(dp1610
g11
g12
sg13
VSystem Font
p1611
sg15
I400
sg16
g12
sg17
g12
sg18
V/System/Library/Fonts/SFNSText-BoldG2.otf
p1612
sg20
g21
sbag1
(g8
g3
NtRp1613
(dp1614
g11
g12
sg13
VProggyCleanTT Plus Nerd File Types Mono
p1615
sg15
I400
sg16
g12
sg17
g12
sg18
V/Users/nirum/Library/Fonts/ProggyCleanTT Plus Nerd File Types Mono.ttf
p1616
sg20
g21
sbag1
(g8
g3
NtRp1617
(dp1618
g11
g12
sg13
VMeslo LG L for Powerline Plus Nerd File Types Mono
p1619
sg15
I400
sg16
g12
sg17
g12
sg18
V/Users/nirum/Library/Fonts/Meslo LG L Regular for Powerline Plus Nerd File Types Mono.otf
p1620
sg20
g21
sbag1
(g8
g3
NtRp1621
(dp1622
g11
g40
sg13
VLekton PNFT Mono
p1623
sg15
I400
sg16
g12
sg17
g12
sg18
V/Users/nirum/Library/Fonts/Lekton-Italic Plus Nerd File Types Mono Windows Compatible.ttf
p1624
sg20
g21
sbag1
(g8
g3
NtRp1625
(dp1626
g11
g45
sg13
VBitstream Vera Sans Mono PNFT
p1627
sg15
I700
sg16
g12
sg17
g12
sg18
V/Users/nirum/Library/Fonts/Bitstream Vera Sans Mono Bold Oblique Plus Nerd File Types Windows Compatible.ttf
p1628
sg20
g21
sbag1
(g8
g3
NtRp1629
(dp1630
g11
g12
sg13
VInaiMathi
p1631
sg15
I400
sg16
g12
sg17
g12
sg18
V/Library/Fonts/InaiMathi.ttf
p1632
sg20
g21
sbag1
(g8
g3
NtRp1633
(dp1634
g11
g12
sg13
VDejaVu Sans Mono for Powerline Plus Nerd File Types
p1635
sg15
I400
sg16
g12
sg17
g12
sg18
V/Users/nirum/Library/Fonts/DejaVu Sans Mono for Powerline Plus Nerd File Types.ttf
p1636
sg20
g21
sbag1
(g8
g3
NtRp1637
(dp1638
g11
g12
sg13
VFira Mono for Powerline Plus Nerd File Types
p1639
sg15
I700
sg16
g12
sg17
g12
sg18
V/Users/nirum/Library/Fonts/Fira Mono Bold for Powerline Plus Nerd File Types.otf
p1640
sg20
g21
sbag1
(g8
g3
NtRp1641
(dp1642
g11
g12
sg13
VUbuntu Mono Plus Nerd File Types Mono
p1643
sg15
I400
sg16
g12
sg17
g12
sg18
V/Users/nirum/Library/Fonts/Ubuntu Mono Plus Nerd File Types Mono.ttf
p1644
sg20
g21
sbag1
(g8
g3
NtRp1645
(dp1646
g11
g12
sg13
VMeslo LG M DZ for Powerline Plus Nerd File Types Mono Plus Pomicons
p1647
sg15
I400
sg16
g12
sg17
g12
sg18
V/Users/nirum/Library/Fonts/Meslo LG M DZ Regular for Powerline Plus Nerd File Types Mono Plus Pomicons.otf
p1648
sg20
g21
sbag1
(g8
g3
NtRp1649
(dp1650
g11
g12
sg13
VMeslo LG L for Powerline Plus Nerd File Types
p1651
sg15
I400
sg16
g12
sg17
g12
sg18
V/Users/nirum/Library/Fonts/Meslo LG L Regular for Powerline Plus Nerd File Types.otf
p1652
sg20
g21
sbag1
(g8
g3
NtRp1653
(dp1654
g11
g12
sg13
VHeavy Data Plus Nerd File Types
p1655
sg15
I800
sg16
g12
sg17
g12
sg18
V/Users/nirum/Library/Fonts/Heavy Data Plus Nerd File Types.ttf
p1656
sg20
g21
sbag1
(g8
g3
NtRp1657
(dp1658
g11
g12
sg13
VBitstream Vera Sans Mono PNFT
p1659
sg15
I400
sg16
g12
sg17
g12
sg18
V/Users/nirum/Library/Fonts/Bitstream Vera Sans Mono Plus Nerd File Types Windows Compatible.ttf
p1660
sg20
g21
sbag1
(g8
g3
NtRp1661
(dp1662
g11
g12
sg13
VAurulent Sans Mono PNFT Plus Po
p1663
sg15
I400
sg16
g12
sg17
g12
sg18
V/Users/nirum/Library/Fonts/AurulentSansMono-Regular Plus Nerd File Types Plus Pomicons Windows Compatible.otf
p1664
sg20
g21
sbag1
(g8
g3
NtRp1665
(dp1666
g11
g40
sg13
VLekton Plus Nerd File Types Mono
p1667
sg15
I400
sg16
g12
sg17
g12
sg18
V/Users/nirum/Library/Fonts/Lekton-Italic Plus Nerd File Types Mono.ttf
p1668
sg20
g21
sbag1
(g8
g3
NtRp1669
(dp1670
g11
g12
sg13
VIBM 3270 Narrow Plus Nerd File Types Plus Pomicons
p1671
sg15
I400
sg16
g183
sg17
g12
sg18
V/Users/nirum/Library/Fonts/3270 Narrow Plus Nerd File Types Plus Pomicons.ttf
p1672
sg20
g21
sbag1
(g8
g3
NtRp1673
(dp1674
g11
g12
sg13
VIBM 3270 PNFT
p1675
sg15
I500
sg16
g12
sg17
g12
sg18
V/Users/nirum/Library/Fonts/3270-Medium Plus Nerd File Types Windows Compatible.ttf
p1676
sg20
g21
sbag1
(g8
g3
NtRp1677
(dp1678
g11
g12
sg13
VMeslo LG L DZ for Powerline PNF
p1679
sg15
I400
sg16
g12
sg17
g12
sg18
V/Users/nirum/Library/Fonts/Meslo LG L DZ Regular for Powerline Plus Nerd File Types Windows Compatible.otf
p1680
sg20
g21
sbag1
(g8
g3
NtRp1681
(dp1682
g11
g12
sg13
VProggyCleanTT CE Plus Nerd File Types Plus Pomicons
p1683
sg15
I400
sg16
g12
sg17
g12
sg18
V/Users/nirum/Library/Fonts/ProggyCleanTT CE Plus Nerd File Types Plus Pomicons.ttf
p1684
sg20
g21
sbag1
(g8
g3
NtRp1685
(dp1686
g11
g12
sg13
VHeadLineA
p1687
sg15
I400
sg16
g12
sg17
g12
sg18
V/Library/Fonts/HeadlineA.ttf
p1688
sg20
g21
sbag1
(g8
g3
NtRp1689
(dp1690
g11
g12
sg13
VM+ 1m PNFT Mono
p1691
sg15
I700
sg16
g12
sg17
g12
sg18
V/Users/nirum/Library/Fonts/M+ 1m bold Plus Nerd File Types Mono Windows Compatible.ttf
p1692
sg20
g21
sbag1
(g8
g3
NtRp1693
(dp1694
g11
g12
sg13
VLekton PNFT Mono
p1695
sg15
I700
sg16
g12
sg17
g12
sg18
V/Users/nirum/Library/Fonts/Lekton-Bold Plus Nerd File Types Mono Windows Compatible.ttf
p1696
sg20
g21
sbag1
(g8
g3
NtRp1697
(dp1698
g11
g12
sg13
VDroid Sans Mono for Powerline Plus Nerd File Types
p1699
sg15
I400
sg16
g12
sg17
g12
sg18
V/Users/nirum/Library/Fonts/Droid Sans Mono for Powerline Plus Nerd File Types.otf
p1700
sg20
g21
sbag1
(g8
g3
NtRp1701
(dp1702
g11
g12
sg13
VFira Mono for Powerline PNFT
p1703
sg15
I400
sg16
g12
sg17
g12
sg18
V/Users/nirum/Library/Fonts/Fira Mono Regular for Powerline Plus Nerd File Types Windows Compatible.otf
p1704
sg20
g21
sbag1
(g8
g3
NtRp1705
(dp1706
g11
g12
sg13
VM+ 1m Plus Nerd File Types Plus Pomicons
p1707
sg15
I400
sg16
g12
sg17
g12
sg18
V/Users/nirum/Library/Fonts/M+ 1m regular Plus Nerd File Types Plus Pomicons.ttf
p1708
sg20
g21
sbag1
(g8
g3
NtRp1709
(dp1710
g11
g12
sg13
Vmonofur for Powerline Plus Nerd File Types Plus Pomicons
p1711
sg15
I400
sg16
g12
sg17
g12
sg18
V/Users/nirum/Library/Fonts/monofur for Powerline Plus Nerd File Types Plus Pomicons.ttf
p1712
sg20
g21
sbag1
(g8
g3
NtRp1713
(dp1714
g11
g12
sg13
VMicrosoft Sans Serif
p1715
sg15
I400
sg16
g12
sg17
g12
sg18
V/Library/Fonts/Microsoft Sans Serif.ttf
p1716
sg20
g21
sbag1
(g8
g3
NtRp1717
(dp1718
g11
g12
sg13
VAurulent Sans Mono PNFT
p1719
sg15
I400
sg16
g12
sg17
g12
sg18
V/Users/nirum/Library/Fonts/AurulentSansMono-Regular Plus Nerd File Types Windows Compatible.otf
p1720
sg20
g21
sbag1
(g8
g3
NtRp1721
(dp1722
g11
g12
sg13
VSTIXIntegralsUpD
p1723
sg15
I700
sg16
g12
sg17
g12
sg18
V/Library/Fonts/STIXIntUpDBol.otf
p1724
sg20
g21
sbag1
(g8
g3
NtRp1725
(dp1726
g11
g12
sg13
VSTIXGeneral
p1727
sg15
I400
sg16
g12
sg17
g12
sg18
V/Library/Fonts/STIXGeneral.otf
p1728
sg20
g21
sbag1
(g8
g3
NtRp1729
(dp1730
g11
g12
sg13
VMeslo LG S for Powerline Plus Nerd File Types Mono Plus Pomicons
p1731
sg15
I400
sg16
g12
sg17
g12
sg18
V/Users/nirum/Library/Fonts/Meslo LG S Regular for Powerline Plus Nerd File Types Mono Plus Pomicons.otf
p1732
sg20
g21
sbag1
(g8
g3
NtRp1733
(dp1734
g11
g12
sg13
VYuppy TC
p1735
sg15
I400
sg16
g12
sg17
g12
sg18
V/Library/Fonts/YuppyTC-Regular.otf
p1736
sg20
g21
sbag1
(g8
g3
NtRp1737
(dp1738
g11
g12
sg13
VSystem Font
p1739
sg15
I400
sg16
g12
sg17
g12
sg18
V/System/Library/Fonts/SFNSDisplay-Thin.otf
p1740
sg20
g21
sbag1
(g8
g3
NtRp1741
(dp1742
g11
g12
sg13
VM+ 1m PNFT
p1743
sg15
I700
sg16
g12
sg17
g12
sg18
V/Users/nirum/Library/Fonts/M+ 1m bold Plus Nerd File Types Windows Compatible.ttf
p1744
sg20
g21
sbag1
(g8
g3
NtRp1745
(dp1746
g11
g12
sg13
VApple Chancery
p1747
sg15
I400
sg16
g12
sg17
g12
sg18
V/Library/Fonts/Apple Chancery.ttf
p1748
sg20
g21
sbag1
(g8
g3
NtRp1749
(dp1750
g11
g12
sg13
Vmonofur for Powerline Plus Nerd File Types
p1751
sg15
I400
sg16
g12
sg17
g12
sg18
V/Users/nirum/Library/Fonts/monofur for Powerline Plus Nerd File Types.ttf
p1752
sg20
g21
sbag1
(g8
g3
NtRp1753
(dp1754
g11
g40
sg13
Vmonofur for Powerline PNFT
p1755
sg15
I400
sg16
g12
sg17
g12
sg18
V/Users/nirum/Library/Fonts/monofur   italic for Powerline Plus Nerd File Types Windows Compatible.ttf
p1756
sg20
g21
sbag1
(g8
g3
NtRp1757
(dp1758
g11
g12
sg13
VDejaVu Sans Mono for Powerline Plus Nerd File Types Mono
p1759
sg15
I400
sg16
g12
sg17
g12
sg18
V/Users/nirum/Library/Fonts/DejaVu Sans Mono for Powerline Plus Nerd File Types Mono.ttf
p1760
sg20
g21
sbag1
(g8
g3
NtRp1761
(dp1762
g11
g12
sg13
VSTIXIntegralsUpSm
p1763
sg15
I700
sg16
g12
sg17
g12
sg18
V/Library/Fonts/STIXIntUpSmBol.otf
p1764
sg20
g21
sbag1
(g8
g3
NtRp1765
(dp1766
g11
g12
sg13
VSTIXSizeOneSym
p1767
sg15
I700
sg16
g12
sg17
g12
sg18
V/Library/Fonts/STIXSizOneSymBol.otf
p1768
sg20
g21
sbag1
(g8
g3
NtRp1769
(dp1770
g11
g12
sg13
VSTIXSizeTwoSym
p1771
sg15
I400
sg16
g12
sg17
g12
sg18
V/Library/Fonts/STIXSizTwoSymReg.otf
p1772
sg20
g21
sbag1
(g8
g3
NtRp1773
(dp1774
g11
g12
sg13
VMeslo LG M DZ for Powerline PNF
p1775
sg15
I400
sg16
g12
sg17
g12
sg18
V/Users/nirum/Library/Fonts/Meslo LG M DZ Regular for Powerline Plus Nerd File Types Windows Compatible.otf
p1776
sg20
g21
sbag1
(g8
g3
NtRp1777
(dp1778
g11
g12
sg13
VArial
p1779
sg15
I700
sg16
g12
sg17
g12
sg18
V/Library/Fonts/Arial Bold.ttf
p1780
sg20
g21
sbag1
(g8
g3
NtRp1781
(dp1782
g11
g12
sg13
VGeorgia
p1783
sg15
I700
sg16
g12
sg17
g12
sg18
V/Library/Fonts/Georgia Bold.ttf
p1784
sg20
g21
sbag1
(g8
g3
NtRp1785
(dp1786
g11
g45
sg13
VDejaVu Sans Mono for Powerline Plus Nerd File Types Plus Pomicons
p1787
sg15
I400
sg16
g12
sg17
g12
sg18
V/Users/nirum/Library/Fonts/DejaVu Sans Mono Oblique for Powerline Plus Nerd File Types Plus Pomicons.ttf
p1788
sg20
g21
sbag1
(g8
g3
NtRp1789
(dp1790
g11
g12
sg13
Vmonofur for Powerline PNFT Plus
p1791
sg15
I400
sg16
g12
sg17
g12
sg18
V/Users/nirum/Library/Fonts/monofur for Powerline Plus Nerd File Types Plus Pomicons Windows Compatible.ttf
p1792
sg20
g21
sbag1
(g8
g3
NtRp1793
(dp1794
g11
g12
sg13
VSystem Font
p1795
sg15
I400
sg16
g12
sg17
g12
sg18
V/System/Library/Fonts/SFNSText-BoldG3.otf
p1796
sg20
g21
sbag1
(g8
g3
NtRp1797
(dp1798
g11
g12
sg13
VSerto Jerusalem Outline
p1799
sg15
I400
sg16
g12
sg17
g12
sg18
V/usr/X11/lib/X11/fonts/OTF/SyrCOMJerusalemOutline.otf
p1800
sg20
g21
sbag1
(g8
g3
NtRp1801
(dp1802
g11
g40
sg13
VSerto Jerusalem
p1803
sg15
I400
sg16
g12
sg17
g12
sg18
V/usr/X11/lib/X11/fonts/OTF/SyrCOMJerusalemItalic.otf
p1804
sg20
g21
sbag1
(g8
g3
NtRp1805
(dp1806
g11
g12
sg13
VFira Mono Medium for Powerline 
p1807
sg15
I500
sg16
g12
sg17
g12
sg18
V/Users/nirum/Library/Fonts/Fira Mono Medium for Powerline Plus Nerd File Types Mono Plus Pomicons Windows Compatible.otf
p1808
sg20
g21
sbag1
(g8
g3
NtRp1809
(dp1810
g11
g12
sg13
VDejaVu Sans Mono for Powerline Plus Nerd File Types
p1811
sg15
I700
sg16
g12
sg17
g12
sg18
V/Users/nirum/Library/Fonts/DejaVu Sans Mono Bold for Powerline Plus Nerd File Types.ttf
p1812
sg20
g21
sbag1
(g8
g3
NtRp1813
(dp1814
g11
g45
sg13
VBitstream Vera Sans Mono PNFT P
p1815
sg15
I700
sg16
g12
sg17
g12
sg18
V/Users/nirum/Library/Fonts/Bitstream Vera Sans Mono Bold Oblique Plus Nerd File Types Plus Pomicons Windows Compatible.ttf
p1816
sg20
g21
sbag1
(g8
g3
NtRp1817
(dp1818
g11
g12
sg13
VFira Mono for Powerline PNFT Mo
p1819
sg15
I700
sg16
g12
sg17
g12
sg18
V/Users/nirum/Library/Fonts/Fira Mono Bold for Powerline Plus Nerd File Types Mono Plus Pomicons Windows Compatible.otf
p1820
sg20
g21
sbag1
(g8
g3
NtRp1821
(dp1822
g11
g12
sg13
VSTIXIntegralsUpD
p1823
sg15
I400
sg16
g12
sg17
g12
sg18
V/Library/Fonts/STIXIntUpDReg.otf
p1824
sg20
g21
sbag1
(g8
g3
NtRp1825
(dp1826
g11
g45
sg13
VLuxi Mono
p1827
sg15
I400
sg16
g12
sg17
g12
sg18
V/usr/X11R6/lib/X11/fonts/TTF/luximri.ttf
p1828
sg20
g21
sbag1
(g8
g3
NtRp1829
(dp1830
g11
g12
sg13
VFira Mono for Powerline Plus Nerd File Types Mono Plus Pomicons
p1831
sg15
I400
sg16
g12
sg17
g12
sg18
V/Users/nirum/Library/Fonts/Fira Mono Regular for Powerline Plus Nerd File Types Mono Plus Pomicons.otf
p1832
sg20
g21
sbag1
(g8
g3
NtRp1833
(dp1834
g11
g12
sg13
VDejaVu Sans Mono for Powerline 
p1835
sg15
I700
sg16
g12
sg17
g12
sg18
V/Users/nirum/Library/Fonts/DejaVu Sans Mono Bold for Powerline Plus Nerd File Types Plus Pomicons Windows Compatible.ttf
p1836
sg20
g21
sbag1
(g8
g3
NtRp1837
(dp1838
g11
g12
sg13
VAnonymice Powerline Plus Nerd File Types Mono
p1839
sg15
I400
sg16
g12
sg17
g12
sg18
V/Users/nirum/Library/Fonts/Anonymice Powerline Plus Nerd File Types Mono.ttf
p1840
sg20
g21
sbag1
(g8
g3
NtRp1841
(dp1842
g11
g12
sg13
VM+ 1m PNFT Mono
p1843
sg15
I500
sg16
g12
sg17
g12
sg18
V/Users/nirum/Library/Fonts/M+ 1m medium Plus Nerd File Types Mono Windows Compatible.ttf
p1844
sg20
g21
sbag1
(g8
g3
NtRp1845
(dp1846
g11
g12
sg13
VBitstream Vera Sans Mono Plus Nerd File Types
p1847
sg15
I700
sg16
g12
sg17
g12
sg18
V/Users/nirum/Library/Fonts/Bitstream Vera Sans Mono Bold Plus Nerd File Types.ttf
p1848
sg20
g21
sbag1
(g8
g3
NtRp1849
(dp1850
g11
g12
sg13
VProggyCleanTT CE Plus Nerd File Types Mono
p1851
sg15
I400
sg16
g12
sg17
g12
sg18
V/Users/nirum/Library/Fonts/ProggyCleanTT CE Plus Nerd File Types Mono.ttf
p1852
sg20
g21
sbag1
(g8
g3
NtRp1853
(dp1854
g11
g12
sg13
VArial Unicode MS
p1855
sg15
I400
sg16
g12
sg17
g12
sg18
V/Library/Fonts/Arial Unicode.ttf
p1856
sg20
g21
sbag1
(g8
g3
NtRp1857
(dp1858
g11
g12
sg13
VBitstream Vera Sans Mono PNFT M
p1859
sg15
I700
sg16
g12
sg17
g12
sg18
V/Users/nirum/Library/Fonts/Bitstream Vera Sans Mono Bold Plus Nerd File Types Mono Windows Compatible.ttf
p1860
sg20
g21
sbag1
(g8
g3
NtRp1861
(dp1862
g11
g12
sg13
VIBM 3270 PNFT Plus Pomicons
p1863
sg15
I500
sg16
g12
sg17
g12
sg18
V/Users/nirum/Library/Fonts/3270-Medium Plus Nerd File Types Plus Pomicons Windows Compatible.ttf
p1864
sg20
g21
sbag1
(g8
g3
NtRp1865
(dp1866
g11
g12
sg13
VBitstream Vera Sans Mono PNFT P
p1867
sg15
I700
sg16
g12
sg17
g12
sg18
V/Users/nirum/Library/Fonts/Bitstream Vera Sans Mono Bold Plus Nerd File Types Plus Pomicons Windows Compatible.ttf
p1868
sg20
g21
sbag1
(g8
g3
NtRp1869
(dp1870
g11
g12
sg13
VM+ 1m PNFT Mono
p1871
sg15
I200
sg16
g12
sg17
g12
sg18
V/Users/nirum/Library/Fonts/M+ 1m light Plus Nerd File Types Mono Windows Compatible.ttf
p1872
sg20
g21
sbag1
(g8
g3
NtRp1873
(dp1874
g11
g12
sg13
VDroid Sans Mono for Powerline P
p1875
sg15
I400
sg16
g12
sg17
g12
sg18
V/Users/nirum/Library/Fonts/Droid Sans Mono for Powerline Plus Nerd File Types Plus Pomicons Windows Compatible.otf
p1876
sg20
g21
sbag1
(g8
g3
NtRp1877
(dp1878
g11
g12
sg13
VUbuntu Mono PNFT Mono
p1879
sg15
I400
sg16
g12
sg17
g12
sg18
V/Users/nirum/Library/Fonts/Ubuntu Mono Plus Nerd File Types Mono Windows Compatible.ttf
p1880
sg20
g21
sbag1
(g8
g3
NtRp1881
(dp1882
g11
g12
sg13
VSauce Code Powerline Plus Nerd File Types Mono
p1883
sg15
I400
sg16
g12
sg17
g12
sg18
V/Users/nirum/Library/Fonts/Sauce Code Powerline Plus Nerd File Types Mono.otf
p1884
sg20
g21
sbag1
(g8
g3
NtRp1885
(dp1886
g11
g12
sg13
VProFontWindows Plus Nerd File Types Mono Plus Pomicons
p1887
sg15
I400
sg16
g12
sg17
g12
sg18
V/Users/nirum/Library/Fonts/ProFontWindows Plus Nerd File Types Mono Plus Pomicons.ttf
p1888
sg20
g21
sbag1
(g8
g3
NtRp1889
(dp1890
g11
g12
sg13
VLiteration Mono Powerline Plus Nerd File Types Mono
p1891
sg15
I400
sg16
g12
sg17
g12
sg18
V/Users/nirum/Library/Fonts/Literation Mono Powerline Plus Nerd File Types Mono.ttf
p1892
sg20
g21
sbag1
(g8
g3
NtRp1893
(dp1894
g11
g12
sg13
VM+ 1m PNFT
p1895
sg15
I200
sg16
g12
sg17
g12
sg18
V/Users/nirum/Library/Fonts/M+ 1m light Plus Nerd File Types Windows Compatible.ttf
p1896
sg20
g21
sbag1
(g8
g3
NtRp1897
(dp1898
g11
g12
sg13
VSTIXIntegralsD
p1899
sg15
I700
sg16
g12
sg17
g12
sg18
V/Library/Fonts/STIXIntDBol.otf
p1900
sg20
g21
sbag1
(g8
g3
NtRp1901
(dp1902
g11
g40
sg13
Vmonofur for Powerline PNFT Mono
p1903
sg15
I400
sg16
g12
sg17
g12
sg18
V/Users/nirum/Library/Fonts/monofur   italic for Powerline Plus Nerd File Types Mono Windows Compatible.ttf
p1904
sg20
g21
sbag1
(g8
g3
NtRp1905
(dp1906
g11
g12
sg13
VMeslo LG L DZ for Powerline Plus Nerd File Types Plus Pomicons
p1907
sg15
I400
sg16
g12
sg17
g12
sg18
V/Users/nirum/Library/Fonts/Meslo LG L DZ Regular for Powerline Plus Nerd File Types Plus Pomicons.otf
p1908
sg20
g21
sbag1
(g8
g3
NtRp1909
(dp1910
g11
g12
sg13
VDIN Alternate
p1911
sg15
I700
sg16
g12
sg17
g12
sg18
V/Library/Fonts/DIN Alternate Bold.ttf
p1912
sg20
g21
sbag1
(g8
g3
NtRp1913
(dp1914
g11
g40
sg13
Vmonofur for Powerline PNFT Plus
p1915
sg15
I400
sg16
g12
sg17
g12
sg18
V/Users/nirum/Library/Fonts/monofur   italic for Powerline Plus Nerd File Types Plus Pomicons Windows Compatible.ttf
p1916
sg20
g21
sbag1
(g8
g3
NtRp1917
(dp1918
g11
g12
sg13
VCourier New
p1919
sg15
I400
sg16
g12
sg17
g12
sg18
V/Library/Fonts/Courier New.ttf
p1920
sg20
g21
sbag1
(g8
g3
NtRp1921
(dp1922
g11
g40
sg13
VArial Narrow
p1923
sg15
I700
sg16
g183
sg17
g12
sg18
V/Library/Fonts/Arial Narrow Bold Italic.ttf
p1924
sg20
g21
sbag1
(g8
g3
NtRp1925
(dp1926
g11
g12
sg13
VSerto Jerusalem
p1927
sg15
I400
sg16
g12
sg17
g12
sg18
V/usr/X11/lib/X11/fonts/OTF/SyrCOMJerusalem.otf
p1928
sg20
g21
sbag1
(g8
g3
NtRp1929
(dp1930
g11
g12
sg13
VZapfino
p1931
sg15
I400
sg16
g12
sg17
g12
sg18
V/Library/Fonts/Zapfino.ttf
p1932
sg20
g21
sbag1
(g8
g3
NtRp1933
(dp1934
g11
g40
sg13
VLekton Plus Nerd File Types Mono Plus Pomicons
p1935
sg15
I400
sg16
g12
sg17
g12
sg18
V/Users/nirum/Library/Fonts/Lekton-Italic Plus Nerd File Types Mono Plus Pomicons.ttf
p1936
sg20
g21
sbag1
(g8
g3
NtRp1937
(dp1938
g11
g12
sg13
VKrungthep
p1939
sg15
I400
sg16
g12
sg17
g12
sg18
V/Library/Fonts/Krungthep.ttf
p1940
sg20
g21
sbag1
(g8
g3
NtRp1941
(dp1942
g11
g12
sg13
VFira Mono for Powerline Plus Nerd File Types
p1943
sg15
I400
sg16
g12
sg17
g12
sg18
V/Users/nirum/Library/Fonts/Fira Mono Regular for Powerline Plus Nerd File Types.otf
p1944
sg20
g21
sbag1
(g8
g3
NtRp1945
(dp1946
g11
g12
sg13
VDejaVu Sans Mono for Powerline Plus Nerd File Types Mono Plus Pomicons
p1947
sg15
I700
sg16
g12
sg17
g12
sg18
V/Users/nirum/Library/Fonts/DejaVu Sans Mono Bold for Powerline Plus Nerd File Types Mono Plus Pomicons.ttf
p1948
sg20
g21
sbag1
(g8
g3
NtRp1949
(dp1950
g11
g12
sg13
VDiwan Thuluth
p1951
sg15
I400
sg16
g12
sg17
g12
sg18
V/Library/Fonts/Diwan Thuluth.ttf
p1952
sg20
g21
sbag1
(g8
g3
NtRp1953
(dp1954
g11
g12
sg13
VBitstream Vera Sans Mono Plus Nerd File Types Mono
p1955
sg15
I700
sg16
g12
sg17
g12
sg18
V/Users/nirum/Library/Fonts/Bitstream Vera Sans Mono Bold Plus Nerd File Types Mono.ttf
p1956
sg20
g21
sbag1
(g8
g3
NtRp1957
(dp1958
g11
g12
sg13
VMeslo LG L DZ for Powerline Plus Nerd File Types Mono
p1959
sg15
I400
sg16
g12
sg17
g12
sg18
V/Users/nirum/Library/Fonts/Meslo LG L DZ Regular for Powerline Plus Nerd File Types Mono.otf
p1960
sg20
g21
sbag1
(g8
g3
NtRp1961
(dp1962
g11
g12
sg13
VDejaVu Sans Mono for Powerline 
p1963
sg15
I400
sg16
g12
sg17
g12
sg18
V/Users/nirum/Library/Fonts/DejaVu Sans Mono for Powerline Plus Nerd File Types Windows Compatible.ttf
p1964
sg20
g21
sbag1
(g8
g3
NtRp1965
(dp1966
g11
g12
sg13
VSystem Font
p1967
sg15
I400
sg16
g12
sg17
g12
sg18
V/System/Library/Fonts/SFNSText-SemiboldItalic.otf
p1968
sg20
g21
sbag1
(g8
g3
NtRp1969
(dp1970
g11
g12
sg13
VM+ 1m Plus Nerd File Types Mono
p1971
sg15
I200
sg16
g12
sg17
g12
sg18
V/Users/nirum/Library/Fonts/M+ 1m light Plus Nerd File Types Mono.ttf
p1972
sg20
g21
sbag1
(g8
g3
NtRp1973
(dp1974
g11
g12
sg13
VMeslo LG M DZ for Powerline Plus Nerd File Types Plus Pomicons
p1975
sg15
I400
sg16
g12
sg17
g12
sg18
V/Users/nirum/Library/Fonts/Meslo LG M DZ Regular for Powerline Plus Nerd File Types Plus Pomicons.otf
p1976
sg20
g21
sbag1
(g8
g3
NtRp1977
(dp1978
g11
g12
sg13
VInconsolata for Powerline Plus Nerd File Types Plus Pomicons
p1979
sg15
I400
sg16
g12
sg17
g12
sg18
V/Users/nirum/Library/Fonts/Inconsolata for Powerline Plus Nerd File Types Plus Pomicons.otf
p1980
sg20
g21
sbag1
(g8
g3
NtRp1981
(dp1982
g11
g12
sg13
VSystem Font
p1983
sg15
I400
sg16
g12
sg17
g12
sg18
V/System/Library/Fonts/SFNSText-RegularItalicG3.otf
p1984
sg20
g21
sbag1
(g8
g3
NtRp1985
(dp1986
g11
g40
sg13
VVerdana
p1987
sg15
I700
sg16
g12
sg17
g12
sg18
V/Library/Fonts/Verdana Bold Italic.ttf
p1988
sg20
g21
sbag1
(g8
g3
NtRp1989
(dp1990
g11
g12
sg13
VEstrangelo Midyat
p1991
sg15
I400
sg16
g12
sg17
g12
sg18
V/usr/X11/lib/X11/fonts/OTF/SyrCOMMidyat.otf
p1992
sg20
g21
sbag1
(g8
g3
NtRp1993
(dp1994
g11
g12
sg13
VApple Braille
p1995
sg15
I400
sg16
g12
sg17
g12
sg18
V/System/Library/Fonts/Apple Braille Outline 8 Dot.ttf
p1996
sg20
g21
sbag1
(g8
g3
NtRp1997
(dp1998
g11
g12
sg13
VSystem Font
p1999
sg15
I400
sg16
g12
sg17
g12
sg18
V/System/Library/Fonts/SFNSText-RegularItalicG2.otf
p2000
sg20
g21
sbag1
(g8
g3
NtRp2001
(dp2002
g11
g12
sg13
VTimes New Roman
p2003
sg15
I700
sg16
g12
sg17
g12
sg18
V/Library/Fonts/Times New Roman Bold.ttf
p2004
sg20
g21
sbag1
(g8
g3
NtRp2005
(dp2006
g11
g12
sg13
VProFontWindows PNFT Mono
p2007
sg15
I400
sg16
g12
sg17
g12
sg18
V/Users/nirum/Library/Fonts/ProFontWindows Plus Nerd File Types Mono Windows Compatible.ttf
p2008
sg20
g21
sbag1
(g8
g3
NtRp2009
(dp2010
g11
g12
sg13
VM+ 1m PNFT
p2011
sg15
I400
sg16
g12
sg17
g12
sg18
V/Users/nirum/Library/Fonts/M+ 1m thin Plus Nerd File Types Windows Compatible.ttf
p2012
sg20
g21
sbag1
(g8
g3
NtRp2013
(dp2014
g11
g12
sg13
VSTIXVariants
p2015
sg15
I700
sg16
g12
sg17
g12
sg18
V/Library/Fonts/STIXVarBol.otf
p2016
sg20
g21
sbag1
(g8
g3
NtRp2017
(dp2018
g11
g12
sg13
VBitstream Vera Sans Mono Plus Nerd File Types Mono Plus Pomicons
p2019
sg15
I400
sg16
g12
sg17
g12
sg18
V/Users/nirum/Library/Fonts/Bitstream Vera Sans Mono Plus Nerd File Types Mono Plus Pomicons.ttf
p2020
sg20
g21
sbag1
(g8
g3
NtRp2021
(dp2022
g11
g12
sg13
VIBM 3270 PNFT
p2023
sg15
I500
sg16
g12
sg17
g12
sg18
V/Users/nirum/Library/Fonts/3270-Medium Plus Nerd File Types Windows Compatible.otf
p2024
sg20
g21
sbag1
(g8
g3
NtRp2025
(dp2026
g11
g40
sg13
VLekton Plus Nerd File Types
p2027
sg15
I400
sg16
g12
sg17
g12
sg18
V/Users/nirum/Library/Fonts/Lekton-Italic Plus Nerd File Types.ttf
p2028
sg20
g21
sbag1
(g8
g3
NtRp2029
(dp2030
g11
g12
sg13
VIBM 3270 Narrow Plus Nerd File Types Mono Plus Pomicons
p2031
sg15
I400
sg16
g183
sg17
g12
sg18
V/Users/nirum/Library/Fonts/3270 Narrow Plus Nerd File Types Mono Plus Pomicons.otf
p2032
sg20
g21
sbag1
(g8
g3
NtRp2033
(dp2034
g11
g12
sg13
VSerto Batnan
p2035
sg15
I400
sg16
g12
sg17
g12
sg18
V/usr/X11/lib/X11/fonts/OTF/SyrCOMBatnan.otf
p2036
sg20
g21
sbag1
(g8
g3
NtRp2037
(dp2038
g11
g12
sg13
VIBM 3270 Narrow Plus Nerd File Types Mono
p2039
sg15
I400
sg16
g183
sg17
g12
sg18
V/Users/nirum/Library/Fonts/3270 Narrow Plus Nerd File Types Mono.ttf
p2040
sg20
g21
sbag1
(g8
g3
NtRp2041
(dp2042
g11
g12
sg13
VWawati TC
p2043
sg15
I400
sg16
g12
sg17
g12
sg18
V/Library/Fonts/WawaTC-Regular.otf
p2044
sg20
g21
sbag1
(g8
g3
NtRp2045
(dp2046
g11
g45
sg13
VBitstream Vera Sans Mono PNFT M
p2047
sg15
I400
sg16
g12
sg17
g12
sg18
V/Users/nirum/Library/Fonts/Bitstream Vera Sans Mono Oblique Plus Nerd File Types Mono Plus Pomicons Windows Compatible.ttf
p2048
sg20
g21
sbag1
(g8
g3
NtRp2049
(dp2050
g11
g12
sg13
VSTIXSizeTwoSym
p2051
sg15
I700
sg16
g12
sg17
g12
sg18
V/Library/Fonts/STIXSizTwoSymBol.otf
p2052
sg20
g21
sbag1
(g8
g3
NtRp2053
(dp2054
g11
g45
sg13
VBitstream Vera Sans Mono Plus Nerd File Types
p2055
sg15
I400
sg16
g12
sg17
g12
sg18
V/Users/nirum/Library/Fonts/Bitstream Vera Sans Mono Oblique Plus Nerd File Types.ttf
p2056
sg20
g21
sbag1
(g8
g3
NtRp2057
(dp2058
g11
g12
sg13
VKokonor
p2059
sg15
I400
sg16
g12
sg17
g12
sg18
V/Library/Fonts/Kokonor.ttf
p2060
sg20
g21
sbag1
(g8
g3
NtRp2061
(dp2062
g11
g12
sg13
Vmonofur for Powerline PNFT
p2063
sg15
I700
sg16
g12
sg17
g12
sg18
V/Users/nirum/Library/Fonts/monofur   bold for Powerline Plus Nerd File Types Windows Compatible.ttf
p2064
sg20
g21
sbag1
(g8
g3
NtRp2065
(dp2066
g11
g45
sg13
VDejaVu Sans Mono for Powerline Plus Nerd File Types Mono
p2067
sg15
I400
sg16
g12
sg17
g12
sg18
V/Users/nirum/Library/Fonts/DejaVu Sans Mono Oblique for Powerline Plus Nerd File Types Mono.ttf
p2068
sg20
g21
sbag1
(g8
g3
NtRp2069
(dp2070
g11
g12
sg13
VAnonymice Powerline PNFT Mono
p2071
sg15
I400
sg16
g12
sg17
g12
sg18
V/Users/nirum/Library/Fonts/Anonymice Powerline Plus Nerd File Types Mono Windows Compatible.ttf
p2072
sg20
g21
sbag1
(g8
g3
NtRp2073
(dp2074
g11
g12
sg13
VDejaVu Sans Mono for Powerline Plus Nerd File Types Plus Pomicons
p2075
sg15
I700
sg16
g12
sg17
g12
sg18
V/Users/nirum/Library/Fonts/DejaVu Sans Mono Bold for Powerline Plus Nerd File Types Plus Pomicons.ttf
p2076
sg20
g21
sbag1
(g8
g3
NtRp2077
(dp2078
g11
g40
sg13
Vmonofur for Powerline Plus Nerd File Types Mono
p2079
sg15
I400
sg16
g12
sg17
g12
sg18
V/Users/nirum/Library/Fonts/monofur   italic for Powerline Plus Nerd File Types Mono.ttf
p2080
sg20
g21
sbag1
(g8
g3
NtRp2081
(dp2082
g11
g12
sg13
VIBM 3270 Narrow Plus Nerd File Types Plus Pomicons
p2083
sg15
I400
sg16
g183
sg17
g12
sg18
V/Users/nirum/Library/Fonts/3270 Narrow Plus Nerd File Types Plus Pomicons.otf
p2084
sg20
g21
sbag1
(g8
g3
NtRp2085
(dp2086
g11
g12
sg13
VApple Braille
p2087
sg15
I400
sg16
g12
sg17
g12
sg18
V/System/Library/Fonts/Apple Braille Pinpoint 8 Dot.ttf
p2088
sg20
g21
sbag1
(g8
g3
NtRp2089
(dp2090
g11
g12
sg13
VInconsolata for Powerline PNFT 
p2091
sg15
I400
sg16
g12
sg17
g12
sg18
V/Users/nirum/Library/Fonts/Inconsolata for Powerline Plus Nerd File Types Mono Windows Compatible.otf
p2092
sg20
g21
sbag1
(g8
g3
NtRp2093
(dp2094
g11
g40
sg13
VGeorgia
p2095
sg15
I400
sg16
g12
sg17
g12
sg18
V/Library/Fonts/Georgia Italic.ttf
p2096
sg20
g21
sbag1
(g8
g3
NtRp2097
(dp2098
g11
g12
sg13
VApple Braille
p2099
sg15
I400
sg16
g12
sg17
g12
sg18
V/System/Library/Fonts/Apple Braille Outline 6 Dot.ttf
p2100
sg20
g21
sbag1
(g8
g3
NtRp2101
(dp2102
g11
g12
sg13
VAnonymice Powerline Plus Nerd File Types
p2103
sg15
I400
sg16
g12
sg17
g12
sg18
V/Users/nirum/Library/Fonts/Anonymice Powerline Plus Nerd File Types.ttf
p2104
sg20
g21
sbag1
(g8
g3
NtRp2105
(dp2106
g11
g12
sg13
VSerto Kharput
p2107
sg15
I400
sg16
g12
sg17
g12
sg18
V/usr/X11/lib/X11/fonts/OTF/SyrCOMKharput.otf
p2108
sg20
g21
sbag1
(g8
g3
NtRp2109
(dp2110
g11
g12
sg13
VDejaVu Sans Mono for Powerline 
p2111
sg15
I700
sg16
g12
sg17
g12
sg18
V/Users/nirum/Library/Fonts/DejaVu Sans Mono Bold for Powerline Plus Nerd File Types Windows Compatible.ttf
p2112
sg20
g21
sbag1
(g8
g3
NtRp2113
(dp2114
g11
g12
sg13
VM+ 1m PNFT Plus Pomicons
p2115
sg15
I500
sg16
g12
sg17
g12
sg18
V/Users/nirum/Library/Fonts/M+ 1m medium Plus Nerd File Types Plus Pomicons Windows Compatible.ttf
p2116
sg20
g21
sbag1
(g8
g3
NtRp2117
(dp2118
g11
g12
sg13
VIBM 3270 PNFT Mono Plus Pomicon
p2119
sg15
I500
sg16
g12
sg17
g12
sg18
V/Users/nirum/Library/Fonts/3270-Medium Plus Nerd File Types Mono Plus Pomicons Windows Compatible.otf
p2120
sg20
g21
sbag1
(g8
g3
NtRp2121
(dp2122
g11
g12
sg13
VMeslo LG M for Powerline Plus Nerd File Types
p2123
sg15
I400
sg16
g12
sg17
g12
sg18
V/Users/nirum/Library/Fonts/Meslo LG M Regular for Powerline Plus Nerd File Types.otf
p2124
sg20
g21
sbag1
(g8
g3
NtRp2125
(dp2126
g11
g12
sg13
VInconsolata for Powerline Plus Nerd File Types Mono Plus Pomicons
p2127
sg15
I400
sg16
g12
sg17
g12
sg18
V/Users/nirum/Library/Fonts/Inconsolata for Powerline Plus Nerd File Types Mono Plus Pomicons.otf
p2128
sg20
g21
sbag1
(g8
g3
NtRp2129
(dp2130
g11
g12
sg13
VLiHei Pro
p2131
sg15
I400
sg16
g12
sg17
g12
sg18
V/Library/Fonts/\u5137\u9ed1 Pro.ttf
p2132
sg20
g21
sbag1
(g8
g3
NtRp2133
(dp2134
g11
g12
sg13
VSystem Font
p2135
sg15
I400
sg16
g12
sg17
g12
sg18
V/System/Library/Fonts/SFNSText-LightItalic.otf
p2136
sg20
g21
sbag1
(g8
g3
NtRp2137
(dp2138
g11
g45
sg13
VDejaVu Sans Mono for Powerline Plus Nerd File Types Mono Plus Pomicons
p2139
sg15
I700
sg16
g12
sg17
g12
sg18
V/Users/nirum/Library/Fonts/DejaVu Sans Mono Bold Oblique for Powerline Plus Nerd File Types Mono Plus Pomicons.ttf
p2140
sg20
g21
sbag1
(g8
g3
NtRp2141
(dp2142
g11
g12
sg13
VSTIXGeneral
p2143
sg15
I700
sg16
g12
sg17
g12
sg18
V/Library/Fonts/STIXGeneralBol.otf
p2144
sg20
g21
sbag1
(g8
g3
NtRp2145
(dp2146
g11
g12
sg13
VBitstream Vera Sans Mono PNFT P
p2147
sg15
I400
sg16
g12
sg17
g12
sg18
V/Users/nirum/Library/Fonts/Bitstream Vera Sans Mono Plus Nerd File Types Plus Pomicons Windows Compatible.ttf
p2148
sg20
g21
sbag1
(g8
g3
NtRp2149
(dp2150
g11
g12
sg13
VSystem Font
p2151
sg15
I400
sg16
g12
sg17
g12
sg18
V/System/Library/Fonts/SFNSText-Light.otf
p2152
sg20
g21
sbag1
(g8
g3
NtRp2153
(dp2154
g11
g12
sg13
VSystem Font
p2155
sg15
I400
sg16
g12
sg17
g12
sg18
V/System/Library/Fonts/SFNSDisplay-Ultralight.otf
p2156
sg20
g21
sbag1
(g8
g3
NtRp2157
(dp2158
g11
g12
sg13
VMeslo LG S DZ for Powerline PNF
p2159
sg15
I400
sg16
g12
sg17
g12
sg18
V/Users/nirum/Library/Fonts/Meslo LG S DZ Regular for Powerline Plus Nerd File Types Mono Windows Compatible.otf
p2160
sg20
g21
sbag1
(g8
g3
NtRp2161
(dp2162
g11
g12
sg13
VSTIXIntegralsD
p2163
sg15
I400
sg16
g12
sg17
g12
sg18
V/Library/Fonts/STIXIntDReg.otf
p2164
sg20
g21
sbag1
(g8
g3
NtRp2165
(dp2166
g11
g40
sg13
VSTIXGeneral
p2167
sg15
I700
sg16
g12
sg17
g12
sg18
V/Library/Fonts/STIXGeneralBolIta.otf
p2168
sg20
g21
sbag1
(g8
g3
NtRp2169
(dp2170
g11
g12
sg13
VTrebuchet MS
p2171
sg15
I400
sg16
g12
sg17
g12
sg18
V/Library/Fonts/Trebuchet MS.ttf
p2172
sg20
g21
sbag1
(g8
g3
NtRp2173
(dp2174
g11
g12
sg13
VCourier New
p2175
sg15
I700
sg16
g12
sg17
g12
sg18
V/Library/Fonts/Courier New Bold.ttf
p2176
sg20
g21
sbag1
(g8
g3
NtRp2177
(dp2178
g11
g12
sg13
Vmonofur for Powerline Plus Nerd File Types Mono Plus Pomicons
p2179
sg15
I400
sg16
g12
sg17
g12
sg18
V/Users/nirum/Library/Fonts/monofur for Powerline Plus Nerd File Types Mono Plus Pomicons.ttf
p2180
sg20
g21
sbag1
(g8
g3
NtRp2181
(dp2182
g11
g12
sg13
VHerculanum
p2183
sg15
I400
sg16
g12
sg17
g12
sg18
V/Library/Fonts/Herculanum.ttf
p2184
sg20
g21
sbag1
(g8
g3
NtRp2185
(dp2186
g11
g12
sg13
VSystem Font
p2187
sg15
I400
sg16
g12
sg17
g12
sg18
V/System/Library/Fonts/SFNSDisplay-Medium.otf
p2188
sg20
g21
sbag1
(g8
g3
NtRp2189
(dp2190
g11
g12
sg13
VSystem Font
p2191
sg15
I400
sg16
g12
sg17
g12
sg18
V/System/Library/Fonts/SFNSText-MediumItalic.otf
p2192
sg20
g21
sbag1
(g8
g3
NtRp2193
(dp2194
g11
g12
sg13
VIBM 3270 Narrow PNFT
p2195
sg15
I400
sg16
g183
sg17
g12
sg18
V/Users/nirum/Library/Fonts/3270 Narrow Plus Nerd File Types Windows Compatible.otf
p2196
sg20
g21
sbag1
(g8
g3
NtRp2197
(dp2198
g11
g12
sg13
VMeslo LG L for Powerline PNFT M
p2199
sg15
I400
sg16
g12
sg17
g12
sg18
V/Users/nirum/Library/Fonts/Meslo LG L Regular for Powerline Plus Nerd File Types Mono Windows Compatible.otf
p2200
sg20
g21
sbag1
(g8
g3
NtRp2201
(dp2202
g11
g12
sg13
VLiteration Mono Powerline PNFT 
p2203
sg15
I400
sg16
g12
sg17
g12
sg18
V/Users/nirum/Library/Fonts/Literation Mono Powerline Plus Nerd File Types Mono Windows Compatible.ttf
p2204
sg20
g21
sbag1
(g8
g3
NtRp2205
(dp2206
g11
g12
sg13
VHeavy Data PNFT Mono
p2207
sg15
I800
sg16
g12
sg17
g12
sg18
V/Users/nirum/Library/Fonts/Heavy Data Plus Nerd File Types Mono Windows Compatible.ttf
p2208
sg20
g21
sbag1
(g8
g3
NtRp2209
(dp2210
g11
g12
sg13
VEstrangelo TurAbdin
p2211
sg15
I400
sg16
g12
sg17
g12
sg18
V/usr/X11/lib/X11/fonts/OTF/SyrCOMTurAbdin.otf
p2212
sg20
g21
sbag1
(g8
g3
NtRp2213
(dp2214
g11
g12
sg13
VWingdings 2
p2215
sg15
I400
sg16
g12
sg17
g12
sg18
V/Library/Fonts/Wingdings 2.ttf
p2216
sg20
g21
sbag1
(g8
g3
NtRp2217
(dp2218
g11
g12
sg13
VTahoma
p2219
sg15
I400
sg16
g12
sg17
g12
sg18
V/Library/Fonts/Tahoma.ttf
p2220
sg20
g21
sbag1
(g8
g3
NtRp2221
(dp2222
g11
g40
sg13
VBrush Script MT
p2223
sg15
I400
sg16
g12
sg17
g12
sg18
V/Library/Fonts/Brush Script.ttf
p2224
sg20
g21
sbag1
(g8
g3
NtRp2225
(dp2226
g11
g12
sg13
VIBM 3270 Plus Nerd File Types Mono Plus Pomicons
p2227
sg15
I500
sg16
g12
sg17
g12
sg18
V/Users/nirum/Library/Fonts/3270-Medium Plus Nerd File Types Mono Plus Pomicons.otf
p2228
sg20
g21
sbag1
(g8
g3
NtRp2229
(dp2230
g11
g12
sg13
Vmonofur for Powerline PNFT Plus
p2231
sg15
I700
sg16
g12
sg17
g12
sg18
V/Users/nirum/Library/Fonts/monofur   bold for Powerline Plus Nerd File Types Plus Pomicons Windows Compatible.ttf
p2232
sg20
g21
sbag1
(g8
g3
NtRp2233
(dp2234
g11
g12
sg13
VLekton Plus Nerd File Types Mono Plus Pomicons
p2235
sg15
I700
sg16
g12
sg17
g12
sg18
V/Users/nirum/Library/Fonts/Lekton-Bold Plus Nerd File Types Mono Plus Pomicons.ttf
p2236
sg20
g21
sbag1
(g8
g3
NtRp2237
(dp2238
g11
g12
sg13
VM+ 1m Plus Nerd File Types Mono Plus Pomicons
p2239
sg15
I700
sg16
g12
sg17
g12
sg18
V/Users/nirum/Library/Fonts/M+ 1m bold Plus Nerd File Types Mono Plus Pomicons.ttf
p2240
sg20
g21
sbag1
(g8
g3
NtRp2241
(dp2242
g11
g12
sg13
VAnonymice Powerline PNFT Plus P
p2243
sg15
I400
sg16
g12
sg17
g12
sg18
V/Users/nirum/Library/Fonts/Anonymice Powerline Plus Nerd File Types Plus Pomicons Windows Compatible.ttf
p2244
sg20
g21
sbag1
(g8
g3
NtRp2245
(dp2246
g11
g12
sg13
VSTIXSizeOneSym
p2247
sg15
I400
sg16
g12
sg17
g12
sg18
V/Library/Fonts/STIXSizOneSymReg.otf
p2248
sg20
g21
sbag1
(g8
g3
NtRp2249
(dp2250
g11
g12
sg13
VMeslo LG M for Powerline Plus Nerd File Types Plus Pomicons
p2251
sg15
I400
sg16
g12
sg17
g12
sg18
V/Users/nirum/Library/Fonts/Meslo LG M Regular for Powerline Plus Nerd File Types Plus Pomicons.otf
p2252
sg20
g21
sbag1
(g8
g3
NtRp2253
(dp2254
g11
g12
sg13
VKhmer Sangam MN
p2255
sg15
I400
sg16
g12
sg17
g12
sg18
V/Library/Fonts/Khmer Sangam MN.ttf
p2256
sg20
g21
sbag1
(g8
g3
NtRp2257
(dp2258
g11
g12
sg13
VHeavy Data PNFT Plus Pomicons
p2259
sg15
I800
sg16
g12
sg17
g12
sg18
V/Users/nirum/Library/Fonts/Heavy Data Plus Nerd File Types Plus Pomicons Windows Compatible.ttf
p2260
sg20
g21
sbag1
(g8
g3
NtRp2261
(dp2262
g11
g12
sg13
VSauce Code Powerline PNFT Mono 
p2263
sg15
I400
sg16
g12
sg17
g12
sg18
V/Users/nirum/Library/Fonts/Sauce Code Powerline Plus Nerd File Types Mono Plus Pomicons Windows Compatible.otf
p2264
sg20
g21
sbag1
(g8
g3
NtRp2265
(dp2266
g11
g12
sg13
VSystem Font
p2267
sg15
I400
sg16
g12
sg17
g12
sg18
V/System/Library/Fonts/SFNSDisplay-Black.otf
p2268
sg20
g21
sbag1
(g8
g3
NtRp2269
(dp2270
g11
g12
sg13
VLekton PNFT Plus Pomicons
p2271
sg15
I400
sg16
g12
sg17
g12
sg18
V/Users/nirum/Library/Fonts/Lekton Plus Nerd File Types Plus Pomicons Windows Compatible.ttf
p2272
sg20
g21
sbag1
(g8
g3
NtRp2273
(dp2274
g11
g12
sg13
VProFontWindows Plus Nerd File Types Plus Pomicons
p2275
sg15
I400
sg16
g12
sg17
g12
sg18
V/Users/nirum/Library/Fonts/ProFontWindows Plus Nerd File Types Plus Pomicons.ttf
p2276
sg20
g21
sbag1
(g8
g3
NtRp2277
(dp2278
g11
g45
sg13
VDejaVu Sans Mono for Powerline Plus Nerd File Types
p2279
sg15
I700
sg16
g12
sg17
g12
sg18
V/Users/nirum/Library/Fonts/DejaVu Sans Mono Bold Oblique for Powerline Plus Nerd File Types.ttf
p2280
sg20
g21
sbag1
(g8
g3
NtRp2281
(dp2282
g11
g12
sg13
Vmonofur for Powerline PNFT Mono
p2283
sg15
I700
sg16
g12
sg17
g12
sg18
V/Users/nirum/Library/Fonts/monofur   bold for Powerline Plus Nerd File Types Mono Windows Compatible.ttf
p2284
sg20
g21
sbag1
(g8
g3
NtRp2285
(dp2286
g11
g12
sg13
VMeslo LG M DZ for Powerline PNF
p2287
sg15
I400
sg16
g12
sg17
g12
sg18
V/Users/nirum/Library/Fonts/Meslo LG M DZ Regular for Powerline Plus Nerd File Types Plus Pomicons Windows Compatible.otf
p2288
sg20
g21
sbag1
(g8
g3
NtRp2289
(dp2290
g11
g12
sg13
VIBM 3270 Narrow PNFT Mono
p2291
sg15
I400
sg16
g183
sg17
g12
sg18
V/Users/nirum/Library/Fonts/3270 Narrow Plus Nerd File Types Mono Windows Compatible.otf
p2292
sg20
g21
sbag1
(g8
g3
NtRp2293
(dp2294
g11
g12
sg13
VSystem Font
p2295
sg15
I400
sg16
g12
sg17
g12
sg18
V/System/Library/Fonts/SFNSText-RegularG1.otf
p2296
sg20
g21
sbag1
(g8
g3
NtRp2297
(dp2298
g11
g12
sg13
VInconsolata for Powerline PNFT 
p2299
sg15
I400
sg16
g12
sg17
g12
sg18
V/Users/nirum/Library/Fonts/Inconsolata for Powerline Plus Nerd File Types Mono Plus Pomicons Windows Compatible.otf
p2300
sg20
g21
sbag1
(g8
g3
NtRp2301
(dp2302
g11
g12
sg13
VIBM 3270 PNFT Mono
p2303
sg15
I500
sg16
g12
sg17
g12
sg18
V/Users/nirum/Library/Fonts/3270-Medium Plus Nerd File Types Mono Windows Compatible.ttf
p2304
sg20
g21
sbag1
(g8
g3
NtRp2305
(dp2306
g11
g12
sg13
VDroid Sans Mono for Powerline P
p2307
sg15
I400
sg16
g12
sg17
g12
sg18
V/Users/nirum/Library/Fonts/Droid Sans Mono for Powerline Plus Nerd File Types Mono Plus Pomicons Windows Compatible.otf
p2308
sg20
g21
sbag1
(g8
g3
NtRp2309
(dp2310
g11
g12
sg13
VTrattatello
p2311
sg15
I400
sg16
g12
sg17
g12
sg18
V/Library/Fonts/Trattatello.ttf
p2312
sg20
g21
sbag1
(g8
g3
NtRp2313
(dp2314
g11
g12
sg13
VSystem Font
p2315
sg15
I400
sg16
g12
sg17
g12
sg18
V/System/Library/Fonts/SFNSText-BoldItalicG3.otf
p2316
sg20
g21
sbag1
(g8
g3
NtRp2317
(dp2318
g11
g12
sg13
VIBM 3270 Plus Nerd File Types
p2319
sg15
I500
sg16
g12
sg17
g12
sg18
V/Users/nirum/Library/Fonts/3270-Medium Plus Nerd File Types.ttf
p2320
sg20
g21
sbag1
(g8
g3
NtRp2321
(dp2322
g11
g12
sg13
V.LastResort
p2323
sg15
I400
sg16
g12
sg17
g12
sg18
V/System/Library/Fonts/LastResort.ttf
p2324
sg20
g21
sbag1
(g8
g3
NtRp2325
(dp2326
g11
g12
sg13
VOsaka
p2327
sg15
I400
sg16
g12
sg17
g12
sg18
V/Library/Fonts/OsakaMono.ttf
p2328
sg20
g21
sbag1
(g8
g3
NtRp2329
(dp2330
g11
g12
sg13
VGungSeo
p2331
sg15
I400
sg16
g12
sg17
g12
sg18
V/Library/Fonts/Gungseouche.ttf
p2332
sg20
g21
sbag1
(g8
g3
NtRp2333
(dp2334
g11
g12
sg13
VM+ 1m Plus Nerd File Types
p2335
sg15
I500
sg16
g12
sg17
g12
sg18
V/Users/nirum/Library/Fonts/M+ 1m medium Plus Nerd File Types.ttf
p2336
sg20
g21
sbag1
(g8
g3
NtRp2337
(dp2338
g11
g12
sg13
VIBM 3270 Plus Nerd File Types Mono
p2339
sg15
I500
sg16
g12
sg17
g12
sg18
V/Users/nirum/Library/Fonts/3270-Medium Plus Nerd File Types Mono.ttf
p2340
sg20
g21
sbag1
(g8
g3
NtRp2341
(dp2342
g11
g12
sg13
VLiteration Mono Powerline Plus Nerd File Types Plus Pomicons
p2343
sg15
I400
sg16
g12
sg17
g12
sg18
V/Users/nirum/Library/Fonts/Literation Mono Powerline Plus Nerd File Types Plus Pomicons.ttf
p2344
sg20
g21
sbag1
(g8
g3
NtRp2345
(dp2346
g11
g45
sg13
VBitstream Vera Sans Mono Plus Nerd File Types Mono Plus Pomicons
p2347
sg15
I400
sg16
g12
sg17
g12
sg18
V/Users/nirum/Library/Fonts/Bitstream Vera Sans Mono Oblique Plus Nerd File Types Mono Plus Pomicons.ttf
p2348
sg20
g21
sbag1
(g8
g3
NtRp2349
(dp2350
g11
g12
sg13
VIBM 3270 Plus Nerd File Types Mono Plus Pomicons
p2351
sg15
I500
sg16
g12
sg17
g12
sg18
V/Users/nirum/Library/Fonts/3270-Medium Plus Nerd File Types Mono Plus Pomicons.ttf
p2352
sg20
g21
sbag1
(g8
g3
NtRp2353
(dp2354
g11
g12
sg13
VSathu
p2355
sg15
I400
sg16
g12
sg17
g12
sg18
V/Library/Fonts/Sathu.ttf
p2356
sg20
g21
sbag1
(g8
g3
NtRp2357
(dp2358
g11
g12
sg13
VSystem Font
p2359
sg15
I400
sg16
g12
sg17
g12
sg18
V/System/Library/Fonts/SFNSDisplay-Regular.otf
p2360
sg20
g21
sbag1
(g8
g3
NtRp2361
(dp2362
g11
g12
sg13
VAnonymice Powerline PNFT Mono P
p2363
sg15
I400
sg16
g12
sg17
g12
sg18
V/Users/nirum/Library/Fonts/Anonymice Powerline Plus Nerd File Types Mono Plus Pomicons Windows Compatible.ttf
p2364
sg20
g21
sbasS'defaultFamily'
p2365
(dp2366
Vafm
p2367
VHelvetica
p2368
sVttf
p2369
VBitstream Vera Sans
p2370
ssS'ttffiles'
p2371
(lp2372
g19
ag25
ag29
ag33
ag37
ag42
ag47
ag51
ag55
ag59
ag63
ag67
ag71
ag75
ag79
ag83
ag87
ag91
ag95
ag99
ag103
ag107
ag111
ag115
ag119
ag123
ag127
ag131
ag135
ag139
ag143
ag147
ag151
ag155
ag159
ag163
ag167
ag171
ag175
ag179
ag184
ag188
ag192
ag196
ag200
ag204
ag208
ag212
aV/usr/X11R6/lib/X11/fonts/TTF/VeraBI.ttf
p2373
ag216
ag220
aV/Library/Fonts/NISC18030.ttf
p2374
ag224
ag228
ag232
ag236
ag240
aV/usr/X11R6/lib/X11/fonts/TTF/Vera.ttf
p2375
ag244
ag248
ag252
ag256
ag260
ag264
ag268
ag272
ag276
ag280
ag284
ag288
ag292
ag296
ag300
ag304
ag308
ag312
ag316
ag320
ag324
ag328
ag332
ag336
ag340
ag344
ag348
ag352
ag356
ag360
ag364
ag368
ag372
ag376
ag380
ag384
ag388
ag392
ag396
ag400
ag404
ag408
ag412
ag416
ag420
ag424
aV/System/Library/Fonts/Apple Color Emoji.ttf
p2376
ag428
ag432
ag436
ag440
ag444
ag448
ag452
ag456
ag460
ag464
ag468
ag472
ag476
ag480
ag484
ag488
ag492
ag496
ag500
ag504
ag508
ag512
ag516
ag520
ag524
ag528
ag532
ag536
ag540
ag544
ag548
ag552
ag556
ag560
ag564
ag568
ag572
ag576
ag580
ag584
ag588
ag592
ag596
aV/usr/X11/lib/X11/fonts/TTF/VeraSeBd.ttf
p2377
ag600
ag604
ag608
ag612
ag616
ag620
aV/usr/X11R6/lib/X11/fonts/TTF/VeraSeBd.ttf
p2378
ag624
ag628
ag632
ag636
ag640
ag644
ag648
ag652
ag656
ag660
ag664
ag668
ag672
ag676
ag680
aV/usr/X11R6/lib/X11/fonts/TTF/VeraBd.ttf
p2379
ag684
ag688
ag692
ag696
ag700
ag704
ag708
ag712
ag716
ag720
ag724
ag728
ag732
ag736
ag740
ag744
ag748
ag752
ag756
ag760
ag764
aV/usr/X11R6/lib/X11/fonts/TTF/VeraMoBd.ttf
p2380
ag768
ag772
ag776
ag780
ag784
ag788
ag792
ag796
ag800
ag804
ag808
ag812
ag816
ag820
ag824
ag828
ag832
ag836
ag840
ag844
ag848
aV/usr/X11/lib/X11/fonts/TTF/luximb.ttf
p2381
ag852
ag856
ag860
ag864
ag868
aV/usr/X11R6/lib/X11/fonts/TTF/VeraMono.ttf
p2382
ag872
ag876
ag880
ag884
ag888
ag892
ag896
ag900
ag904
ag908
ag912
ag916
ag920
ag924
ag928
ag932
ag936
ag940
ag944
ag948
ag952
ag956
ag960
ag964
aV/usr/X11/lib/X11/fonts/TTF/VeraIt.ttf
p2383
ag968
ag972
ag976
ag980
ag984
ag988
ag992
ag996
ag1000
ag1004
ag1008
ag1012
ag1016
ag1020
ag1024
ag1028
ag1032
ag1036
ag1040
ag1044
ag1048
ag1052
ag1056
ag1060
ag1064
ag1068
ag1072
ag1076
ag1080
ag1084
ag1088
ag1092
ag1096
ag1100
ag1104
ag1108
ag1112
ag1116
ag1120
ag1124
ag1128
ag1132
ag1136
ag1140
ag1144
ag1148
ag1152
ag1156
ag1160
ag1164
ag1168
ag1172
ag1176
ag1180
ag1184
ag1188
ag1192
ag1196
ag1200
ag1204
ag1208
ag1212
ag1216
ag1220
ag1224
ag1228
ag1232
ag1236
ag1240
ag1244
ag1248
ag1252
ag1256
ag1260
ag1264
ag1268
ag1272
ag1276
ag1280
ag1284
ag1288
ag1292
ag1296
ag1300
aV/usr/X11/lib/X11/fonts/TTF/luxisri.ttf
p2384
ag1304
ag1308
ag1312
ag1316
ag1320
ag1324
ag1328
ag1332
ag1336
ag1340
ag1344
aV/usr/X11R6/lib/X11/fonts/TTF/luxirri.ttf
p2385
ag1348
ag1352
ag1356
ag1360
ag1364
ag1368
ag1372
ag1376
ag1380
ag1384
ag1388
ag1392
ag1396
ag1400
ag1404
aV/usr/X11R6/lib/X11/fonts/TTF/VeraMoIt.ttf
p2386
ag1408
ag1412
ag1416
ag1420
ag1424
ag1428
ag1432
ag1436
ag1440
ag1444
ag1448
ag1452
ag1456
ag1460
ag1464
aV/usr/X11/lib/X11/fonts/TTF/luxirb.ttf
p2387
ag1468
ag1472
ag1476
ag1480
ag1484
aV/usr/X11/lib/X11/fonts/TTF/VeraMono.ttf
p2388
ag1488
ag1492
ag1496
ag1500
ag1504
ag1508
ag1512
ag1516
ag1520
ag1524
ag1528
ag1532
ag1536
ag1540
ag1544
ag1548
ag1552
ag1556
ag1560
aV/usr/X11/lib/X11/fonts/TTF/VeraMoBd.ttf
p2389
ag1564
ag1568
aV/usr/X11/lib/X11/fonts/TTF/VeraMoBI.ttf
p2390
ag1572
ag1576
ag1580
ag1584
ag1588
ag1592
ag1596
ag1600
ag1604
ag1608
ag1612
ag1616
aV/usr/X11R6/lib/X11/fonts/TTF/VeraIt.ttf
p2391
ag1620
ag1624
ag1628
ag1632
ag1636
ag1640
ag1644
ag1648
ag1652
ag1656
ag1660
aV/usr/X11R6/lib/X11/fonts/TTF/luxirr.ttf
p2392
ag1664
ag1668
ag1672
aV/usr/X11/lib/X11/fonts/TTF/luxisbi.ttf
p2393
ag1676
ag1680
ag1684
ag1688
ag1692
ag1696
ag1700
ag1704
ag1708
ag1712
aV/usr/X11R6/lib/X11/fonts/TTF/luximbi.ttf
p2394
ag1716
ag1720
ag1724
ag1728
aV/usr/X11R6/lib/X11/fonts/TTF/luxisb.ttf
p2395
ag1732
ag1736
ag1740
ag1744
ag1748
ag1752
aV/usr/X11/lib/X11/fonts/TTF/Vera.ttf
p2396
ag1756
ag1760
ag1764
aV/usr/X11R6/lib/X11/fonts/TTF/luxisr.ttf
p2397
ag1768
ag1772
ag1776
ag1780
ag1784
ag1788
ag1792
ag1796
ag1800
ag1804
ag1808
ag1812
ag1816
ag1820
ag1824
ag1828
ag1832
aV/usr/X11/lib/X11/fonts/TTF/VeraBd.ttf
p2398
ag1836
aV/usr/X11/lib/X11/fonts/TTF/luximri.ttf
p2399
ag1840
ag1844
ag1848
ag1852
ag1856
aV/usr/X11/lib/X11/fonts/TTF/VeraSe.ttf
p2400
aV/usr/X11R6/lib/X11/fonts/TTF/VeraMoBI.ttf
p2401
ag1860
ag1864
ag1868
ag1872
ag1876
ag1880
ag1884
ag1888
ag1892
ag1896
ag1900
ag1904
ag1908
ag1912
ag1916
ag1920
ag1924
ag1928
ag1932
ag1936
ag1940
ag1944
ag1948
aV/usr/X11/lib/X11/fonts/TTF/VeraMoIt.ttf
p2402
ag1952
ag1956
ag1960
ag1964
ag1968
ag1972
ag1976
ag1980
aV/usr/X11R6/lib/X11/fonts/TTF/luximr.ttf
p2403
ag1984
ag1988
ag1992
ag1996
aV/usr/X11R6/lib/X11/fonts/TTF/VeraSe.ttf
p2404
ag2000
ag2004
ag2008
aV/usr/X11/lib/X11/fonts/TTF/GohaTibebZemen.ttf
p2405
ag2012
ag2016
ag2020
ag2024
ag2028
ag2032
ag2036
ag2040
ag2044
ag2048
ag2052
ag2056
ag2060
aV/usr/X11/lib/X11/fonts/TTF/luxirbi.ttf
p2406
ag2064
ag2068
ag2072
ag2076
ag2080
ag2084
ag2088
ag2092
ag2096
ag2100
ag2104
ag2108
ag2112
ag2116
ag2120
ag2124
ag2128
ag2132
ag2136
ag2140
ag2144
ag2148
ag2152
ag2156
ag2160
ag2164
ag2168
ag2172
aV/usr/X11/lib/X11/fonts/TTF/VeraBI.ttf
p2407
ag2176
ag2180
ag2184
ag2188
ag2192
ag2196
ag2200
ag2204
ag2208
ag2212
ag2216
ag2220
ag2224
ag2228
ag2232
ag2236
ag2240
ag2244
ag2248
ag2252
ag2256
ag2260
ag2264
ag2268
ag2272
ag2276
ag2280
ag2284
ag2288
ag2292
ag2296
ag2300
ag2304
ag2308
ag2312
ag2316
ag2320
ag2324
ag2328
ag2332
ag2336
ag2340
ag2344
ag2348
ag2352
ag2356
ag2360
ag2364
asS'_FontManager__default_weight'
p2408
Vnormal
p2409
sS'_version'
p2410
I101
sS'default_size'
p2411
NsS'defaultFont'
p2412
(dp2413
g2367
V/usr/local/lib/python2.7/site-packages/matplotlib/mpl-data/fonts/pdfcorefonts/Helvetica-Bold.afm
p2414
sg2369
g111
ssS'afmfiles'
p2415
(lp2416
g2414
aV/usr/local/lib/python2.7/site-packages/matplotlib/mpl-data/fonts/pdfcorefonts/Courier-Oblique.afm
p2417
aV/usr/local/lib/python2.7/site-packages/matplotlib/mpl-data/fonts/afm/phvb8a.afm
p2418
aV/usr/local/lib/python2.7/site-packages/matplotlib/mpl-data/fonts/pdfcorefonts/Times-Bold.afm
p2419
aV/usr/local/lib/python2.7/site-packages/matplotlib/mpl-data/fonts/afm/pbkli8a.afm
p2420
aV/usr/local/lib/python2.7/site-packages/matplotlib/mpl-data/fonts/pdfcorefonts/Courier-BoldOblique.afm
p2421
aV/usr/local/lib/python2.7/site-packages/matplotlib/mpl-data/fonts/afm/phvr8an.afm
p2422
aV/usr/local/lib/python2.7/site-packages/matplotlib/mpl-data/fonts/pdfcorefonts/Courier.afm
p2423
aV/usr/local/lib/python2.7/site-packages/matplotlib/mpl-data/fonts/afm/ptmri8a.afm
p2424
aV/usr/local/lib/python2.7/site-packages/matplotlib/mpl-data/fonts/afm/cmex10.afm
p2425
aV/usr/local/lib/python2.7/site-packages/matplotlib/mpl-data/fonts/afm/pzdr.afm
p2426
aV/usr/local/lib/python2.7/site-packages/matplotlib/mpl-data/fonts/afm/phvr8a.afm
p2427
aV/usr/local/lib/python2.7/site-packages/matplotlib/mpl-data/fonts/afm/pncbi8a.afm
p2428
aV/usr/local/lib/python2.7/site-packages/matplotlib/mpl-data/fonts/afm/phvbo8an.afm
p2429
aV/usr/local/lib/python2.7/site-packages/matplotlib/mpl-data/fonts/afm/pagd8a.afm
p2430
aV/usr/local/lib/python2.7/site-packages/matplotlib/mpl-data/fonts/afm/pplbi8a.afm
p2431
aV/usr/local/lib/python2.7/site-packages/matplotlib/mpl-data/fonts/afm/cmtt10.afm
p2432
aV/usr/local/lib/python2.7/site-packages/matplotlib/mpl-data/fonts/afm/putri8a.afm
p2433
aV/usr/local/lib/python2.7/site-packages/matplotlib/mpl-data/fonts/afm/pplr8a.afm
p2434
aV/usr/local/lib/python2.7/site-packages/matplotlib/mpl-data/fonts/afm/cmsy10.afm
p2435
aV/usr/local/lib/python2.7/site-packages/matplotlib/mpl-data/fonts/afm/putb8a.afm
p2436
aV/usr/local/lib/python2.7/site-packages/matplotlib/mpl-data/fonts/pdfcorefonts/Helvetica.afm
p2437
aV/usr/local/lib/python2.7/site-packages/matplotlib/mpl-data/fonts/afm/pplb8a.afm
p2438
aV/usr/local/lib/python2.7/site-packages/matplotlib/mpl-data/fonts/afm/phvb8an.afm
p2439
aV/usr/local/lib/python2.7/site-packages/matplotlib/mpl-data/fonts/afm/putr8a.afm
p2440
aV/usr/local/lib/python2.7/site-packages/matplotlib/mpl-data/fonts/afm/phvro8a.afm
p2441
aV/usr/local/lib/python2.7/site-packages/matplotlib/mpl-data/fonts/pdfcorefonts/Helvetica-BoldOblique.afm
p2442
aV/usr/local/lib/python2.7/site-packages/matplotlib/mpl-data/fonts/pdfcorefonts/Symbol.afm
p2443
aV/usr/local/lib/python2.7/site-packages/matplotlib/mpl-data/fonts/afm/pplri8a.afm
p2444
aV/usr/local/lib/python2.7/site-packages/matplotlib/mpl-data/fonts/pdfcorefonts/Times-Italic.afm
p2445
aV/usr/local/lib/python2.7/site-packages/matplotlib/mpl-data/fonts/afm/ptmb8a.afm
p2446
aV/usr/local/lib/python2.7/site-packages/matplotlib/mpl-data/fonts/afm/ptmr8a.afm
p2447
aV/usr/local/lib/python2.7/site-packages/matplotlib/mpl-data/fonts/afm/phvl8a.afm
p2448
aV/usr/local/lib/python2.7/site-packages/matplotlib/mpl-data/fonts/afm/putbi8a.afm
p2449
aV/usr/local/lib/python2.7/site-packages/matplotlib/mpl-data/fonts/afm/pncri8a.afm
p2450
aV/usr/local/lib/python2.7/site-packages/matplotlib/mpl-data/fonts/afm/cmr10.afm
p2451
aV/usr/local/lib/python2.7/site-packages/matplotlib/mpl-data/fonts/afm/pbkl8a.afm
p2452
aV/usr/local/lib/python2.7/site-packages/matplotlib/mpl-data/fonts/pdfcorefonts/Helvetica-Oblique.afm
p2453
aV/usr/local/lib/python2.7/site-packages/matplotlib/mpl-data/fonts/pdfcorefonts/Times-BoldItalic.afm
p2454
aV/usr/local/lib/python2.7/site-packages/matplotlib/mpl-data/fonts/afm/phvlo8a.afm
p2455
aV/usr/local/lib/python2.7/site-packages/matplotlib/mpl-data/fonts/afm/pcrbo8a.afm
p2456
aV/usr/local/lib/python2.7/site-packages/matplotlib/mpl-data/fonts/pdfcorefonts/Courier-Bold.afm
p2457
aV/usr/local/lib/python2.7/site-packages/matplotlib/mpl-data/fonts/afm/phvro8an.afm
p2458
aV/usr/local/lib/python2.7/site-packages/matplotlib/mpl-data/fonts/afm/ptmbi8a.afm
p2459
aV/usr/local/lib/python2.7/site-packages/matplotlib/mpl-data/fonts/afm/pcrb8a.afm
p2460
aV/usr/local/lib/python2.7/site-packages/matplotlib/mpl-data/fonts/afm/phvbo8a.afm
p2461
aV/usr/local/lib/python2.7/site-packages/matplotlib/mpl-data/fonts/afm/pncr8a.afm
p2462
aV/usr/local/lib/python2.7/site-packages/matplotlib/mpl-data/fonts/afm/psyr.afm
p2463
aV/usr/local/lib/python2.7/site-packages/matplotlib/mpl-data/fonts/afm/pcrro8a.afm
p2464
aV/usr/local/lib/python2.7/site-packages/matplotlib/mpl-data/fonts/pdfcorefonts/ZapfDingbats.afm
p2465
aV/usr/local/lib/python2.7/site-packages/matplotlib/mpl-data/fonts/afm/cmmi10.afm
p2466
aV/usr/local/lib/python2.7/site-packages/matplotlib/mpl-data/fonts/afm/pcrr8a.afm
p2467
aV/usr/local/lib/python2.7/site-packages/matplotlib/mpl-data/fonts/afm/pncb8a.afm
p2468
aV/usr/local/lib/python2.7/site-packages/matplotlib/mpl-data/fonts/afm/pbkd8a.afm
p2469
aV/usr/local/lib/python2.7/site-packages/matplotlib/mpl-data/fonts/afm/pzcmi8a.afm
p2470
aV/usr/local/lib/python2.7/site-packages/matplotlib/mpl-data/fonts/afm/pagko8a.afm
p2471
aV/usr/local/lib/python2.7/site-packages/matplotlib/mpl-data/fonts/pdfcorefonts/Times-Roman.afm
p2472
aV/usr/local/lib/python2.7/site-packages/matplotlib/mpl-data/fonts/afm/pagk8a.afm
p2473
aV/usr/local/lib/python2.7/site-packages/matplotlib/mpl-data/fonts/afm/pagdo8a.afm
p2474
aV/usr/local/lib/python2.7/site-packages/matplotlib/mpl-data/fonts/afm/pbkdi8a.afm
p2475
aV/usr/X11/lib/X11/fonts/Type1/UTB_____.afm
p2476
aV/usr/X11/lib/X11/fonts/Type1/c0583bt_.afm
p2477
aV/usr/X11/lib/X11/fonts/Type1/l049036t.afm
p2478
aV/usr/X11/lib/X11/fonts/Type1/c0649bt_.afm
p2479
aV/usr/X11/lib/X11/fonts/Type1/UTRG____.afm
p2480
aV/usr/X11/lib/X11/fonts/Type1/c0582bt_.afm
p2481
aV/usr/X11/lib/X11/fonts/Type1/c0648bt_.afm
p2482
aV/usr/X11/lib/X11/fonts/Type1/c0633bt_.afm
p2483
aV/usr/X11/lib/X11/fonts/Type1/l048013t.afm
p2484
aV/usr/X11/lib/X11/fonts/Type1/courb.afm
p2485
aV/usr/X11/lib/X11/fonts/Type1/c0419bt_.afm
p2486
aV/usr/X11/lib/X11/fonts/Type1/UTI_____.afm
p2487
aV/usr/X11/lib/X11/fonts/Type1/l049016t.afm
p2488
aV/usr/X11/lib/X11/fonts/Type1/l048033t.afm
p2489
aV/usr/X11/lib/X11/fonts/Type1/l048016t.afm
p2490
aV/usr/X11/lib/X11/fonts/Type1/l048036t.afm
p2491
aV/usr/X11/lib/X11/fonts/Type1/courbi.afm
p2492
aV/usr/X11/lib/X11/fonts/Type1/c0632bt_.afm
p2493
aV/usr/X11/lib/X11/fonts/Type1/l049013t.afm
p2494
aV/usr/X11/lib/X11/fonts/Type1/c0611bt_.afm
p2495
aV/usr/X11/lib/X11/fonts/Type1/l047036t.afm
p2496
aV/usr/X11/lib/X11/fonts/Type1/l047016t.afm
p2497
aV/usr/X11/lib/X11/fonts/Type1/l047033t.afm
p2498
aV/usr/X11/lib/X11/fonts/Type1/l047013t.afm
p2499
aV/usr/X11/lib/X11/fonts/Type1/l049033t.afm
p2500
aV/usr/X11/lib/X11/fonts/Type1/UTBI____.afm
p2501
aV/usr/X11/lib/X11/fonts/Type1/cour.afm
p2502
aV/usr/X11/lib/X11/fonts/Type1/couri.afm
p2503
asS'afmlist'
p2504
(lp2505
g1
(g8
g3
NtRp2506
(dp2507
g11
Vnormal
p2508
sg13
S'Helvetica'
p2509
sg15
I700
sg16
g2508
sg17
g2508
sg18
g2414
sg20
Vscalable
p2510
sbag1
(g8
g3
NtRp2511
(dp2512
g11
Vitalic
p2513
sg13
S'Courier'
p2514
sg15
I500
sg16
g2508
sg17
g2508
sg18
g2417
sg20
g2510
sbag1
(g8
g3
NtRp2515
(dp2516
g11
g2508
sg13
S'Helvetica'
p2517
sg15
I700
sg16
g2508
sg17
g2508
sg18
g2418
sg20
g2510
sbag1
(g8
g3
NtRp2518
(dp2519
g11
g2508
sg13
S'Times'
p2520
sg15
I700
sg16
g2508
sg17
g2508
sg18
g2419
sg20
g2510
sbag1
(g8
g3
NtRp2521
(dp2522
g11
g2513
sg13
S'ITC Bookman'
p2523
sg15
I200
sg16
g2508
sg17
g2508
sg18
g2420
sg20
g2510
sbag1
(g8
g3
NtRp2524
(dp2525
g11
g2513
sg13
S'Courier'
p2526
sg15
I700
sg16
g2508
sg17
g2508
sg18
g2421
sg20
g2510
sbag1
(g8
g3
NtRp2527
(dp2528
g11
g2508
sg13
S'Helvetica'
p2529
sg15
I500
sg16
Vcondensed
p2530
sg17
g2508
sg18
g2422
sg20
g2510
sbag1
(g8
g3
NtRp2531
(dp2532
g11
g2508
sg13
S'Courier'
p2533
sg15
I500
sg16
g2508
sg17
g2508
sg18
g2423
sg20
g2510
sbag1
(g8
g3
NtRp2534
(dp2535
g11
g2513
sg13
S'Times'
p2536
sg15
I500
sg16
g2508
sg17
g2508
sg18
g2424
sg20
g2510
sbag1
(g8
g3
NtRp2537
(dp2538
g11
g2508
sg13
S'Computer Modern'
p2539
sg15
I500
sg16
g2508
sg17
g2508
sg18
g2425
sg20
g2510
sbag1
(g8
g3
NtRp2540
(dp2541
g11
g2508
sg13
S'ITC Zapf Dingbats'
p2542
sg15
I500
sg16
g2508
sg17
g2508
sg18
g2426
sg20
g2510
sbag1
(g8
g3
NtRp2543
(dp2544
g11
g2508
sg13
S'Helvetica'
p2545
sg15
I500
sg16
g2508
sg17
g2508
sg18
g2427
sg20
g2510
sbag1
(g8
g3
NtRp2546
(dp2547
g11
g2513
sg13
S'New Century Schoolbook'
p2548
sg15
I700
sg16
g2508
sg17
g2508
sg18
g2428
sg20
g2510
sbag1
(g8
g3
NtRp2549
(dp2550
g11
g2513
sg13
S'Helvetica'
p2551
sg15
I700
sg16
g2530
sg17
g2508
sg18
g2429
sg20
g2510
sbag1
(g8
g3
NtRp2552
(dp2553
g11
g2508
sg13
S'ITC Avant Garde Gothic'
p2554
sg15
I600
sg16
g2508
sg17
g2508
sg18
g2430
sg20
g2510
sbag1
(g8
g3
NtRp2555
(dp2556
g11
g2513
sg13
S'Palatino'
p2557
sg15
I700
sg16
g2508
sg17
g2508
sg18
g2431
sg20
g2510
sbag1
(g8
g3
NtRp2558
(dp2559
g11
g2508
sg13
S'Computer Modern'
p2560
sg15
I500
sg16
g2508
sg17
g2508
sg18
g2432
sg20
g2510
sbag1
(g8
g3
NtRp2561
(dp2562
g11
g2513
sg13
S'Utopia'
p2563
sg15
I400
sg16
g2508
sg17
g2508
sg18
g2433
sg20
g2510
sbag1
(g8
g3
NtRp2564
(dp2565
g11
g2508
sg13
S'Palatino'
p2566
sg15
I500
sg16
g2508
sg17
g2508
sg18
g2434
sg20
g2510
sbag1
(g8
g3
NtRp2567
(dp2568
g11
g2513
sg13
S'Computer Modern'
p2569
sg15
I500
sg16
g2508
sg17
g2508
sg18
g2435
sg20
g2510
sbag1
(g8
g3
NtRp2570
(dp2571
g11
g2508
sg13
S'Utopia'
p2572
sg15
I700
sg16
g2508
sg17
g2508
sg18
g2436
sg20
g2510
sbag1
(g8
g3
NtRp2573
(dp2574
g11
g2508
sg13
S'Helvetica'
p2575
sg15
I500
sg16
g2508
sg17
g2508
sg18
g2437
sg20
g2510
sbag1
(g8
g3
NtRp2576
(dp2577
g11
g2508
sg13
S'Palatino'
p2578
sg15
I700
sg16
g2508
sg17
g2508
sg18
g2438
sg20
g2510
sbag1
(g8
g3
NtRp2579
(dp2580
g11
g2508
sg13
S'Helvetica'
p2581
sg15
I700
sg16
g2530
sg17
g2508
sg18
g2439
sg20
g2510
sbag1
(g8
g3
NtRp2582
(dp2583
g11
g2508
sg13
S'Utopia'
p2584
sg15
I400
sg16
g2508
sg17
g2508
sg18
g2440
sg20
g2510
sbag1
(g8
g3
NtRp2585
(dp2586
g11
g2513
sg13
S'Helvetica'
p2587
sg15
I500
sg16
g2508
sg17
g2508
sg18
g2441
sg20
g2510
sbag1
(g8
g3
NtRp2588
(dp2589
g11
g2513
sg13
S'Helvetica'
p2590
sg15
I700
sg16
g2508
sg17
g2508
sg18
g2442
sg20
g2510
sbag1
(g8
g3
NtRp2591
(dp2592
g11
g2508
sg13
S'Symbol'
p2593
sg15
I500
sg16
g2508
sg17
g2508
sg18
g2443
sg20
g2510
sbag1
(g8
g3
NtRp2594
(dp2595
g11
g2513
sg13
S'Palatino'
p2596
sg15
I500
sg16
g2508
sg17
g2508
sg18
g2444
sg20
g2510
sbag1
(g8
g3
NtRp2597
(dp2598
g11
g2513
sg13
S'Times'
p2599
sg15
I500
sg16
g2508
sg17
g2508
sg18
g2445
sg20
g2510
sbag1
(g8
g3
NtRp2600
(dp2601
g11
g2508
sg13
S'Times'
p2602
sg15
I700
sg16
g2508
sg17
g2508
sg18
g2446
sg20
g2510
sbag1
(g8
g3
NtRp2603
(dp2604
g11
g2508
sg13
S'Times'
p2605
sg15
I500
sg16
g2508
sg17
g2508
sg18
g2447
sg20
g2510
sbag1
(g8
g3
NtRp2606
(dp2607
g11
g2508
sg13
S'Helvetica'
p2608
sg15
I200
sg16
g2508
sg17
g2508
sg18
g2448
sg20
g2510
sbag1
(g8
g3
NtRp2609
(dp2610
g11
g2513
sg13
S'Utopia'
p2611
sg15
I700
sg16
g2508
sg17
g2508
sg18
g2449
sg20
g2510
sbag1
(g8
g3
NtRp2612
(dp2613
g11
g2513
sg13
S'New Century Schoolbook'
p2614
sg15
I500
sg16
g2508
sg17
g2508
sg18
g2450
sg20
g2510
sbag1
(g8
g3
NtRp2615
(dp2616
g11
g2508
sg13
S'Computer Modern'
p2617
sg15
I500
sg16
g2508
sg17
g2508
sg18
g2451
sg20
g2510
sbag1
(g8
g3
NtRp2618
(dp2619
g11
g2508
sg13
S'ITC Bookman'
p2620
sg15
I200
sg16
g2508
sg17
g2508
sg18
g2452
sg20
g2510
sbag1
(g8
g3
NtRp2621
(dp2622
g11
g2513
sg13
S'Helvetica'
p2623
sg15
I500
sg16
g2508
sg17
g2508
sg18
g2453
sg20
g2510
sbag1
(g8
g3
NtRp2624
(dp2625
g11
g2513
sg13
S'Times'
p2626
sg15
I700
sg16
g2508
sg17
g2508
sg18
g2454
sg20
g2510
sbag1
(g8
g3
NtRp2627
(dp2628
g11
g2513
sg13
S'Helvetica'
p2629
sg15
I200
sg16
g2508
sg17
g2508
sg18
g2455
sg20
g2510
sbag1
(g8
g3
NtRp2630
(dp2631
g11
g2513
sg13
S'Courier'
p2632
sg15
I700
sg16
g2508
sg17
g2508
sg18
g2456
sg20
g2510
sbag1
(g8
g3
NtRp2633
(dp2634
g11
g2508
sg13
S'Courier'
p2635
sg15
I700
sg16
g2508
sg17
g2508
sg18
g2457
sg20
g2510
sbag1
(g8
g3
NtRp2636
(dp2637
g11
g2513
sg13
S'Helvetica'
p2638
sg15
I500
sg16
g2530
sg17
g2508
sg18
g2458
sg20
g2510
sbag1
(g8
g3
NtRp2639
(dp2640
g11
g2513
sg13
S'Times'
p2641
sg15
I700
sg16
g2508
sg17
g2508
sg18
g2459
sg20
g2510
sbag1
(g8
g3
NtRp2642
(dp2643
g11
g2508
sg13
S'Courier'
p2644
sg15
I700
sg16
g2508
sg17
g2508
sg18
g2460
sg20
g2510
sbag1
(g8
g3
NtRp2645
(dp2646
g11
g2513
sg13
S'Helvetica'
p2647
sg15
I700
sg16
g2508
sg17
g2508
sg18
g2461
sg20
g2510
sbag1
(g8
g3
NtRp2648
(dp2649
g11
g2508
sg13
S'New Century Schoolbook'
p2650
sg15
I500
sg16
g2508
sg17
g2508
sg18
g2462
sg20
g2510
sbag1
(g8
g3
NtRp2651
(dp2652
g11
g2508
sg13
S'Symbol'
p2653
sg15
I500
sg16
g2508
sg17
g2508
sg18
g2463
sg20
g2510
sbag1
(g8
g3
NtRp2654
(dp2655
g11
g2513
sg13
S'Courier'
p2656
sg15
I500
sg16
g2508
sg17
g2508
sg18
g2464
sg20
g2510
sbag1
(g8
g3
NtRp2657
(dp2658
g11
g2508
sg13
S'ZapfDingbats'
p2659
sg15
I500
sg16
g2508
sg17
g2508
sg18
g2465
sg20
g2510
sbag1
(g8
g3
NtRp2660
(dp2661
g11
g2513
sg13
S'Computer Modern'
p2662
sg15
I500
sg16
g2508
sg17
g2508
sg18
g2466
sg20
g2510
sbag1
(g8
g3
NtRp2663
(dp2664
g11
g2508
sg13
S'Courier'
p2665
sg15
I500
sg16
g2508
sg17
g2508
sg18
g2467
sg20
g2510
sbag1
(g8
g3
NtRp2666
(dp2667
g11
g2508
sg13
S'New Century Schoolbook'
p2668
sg15
I700
sg16
g2508
sg17
g2508
sg18
g2468
sg20
g2510
sbag1
(g8
g3
NtRp2669
(dp2670
g11
g2508
sg13
S'ITC Bookman'
p2671
sg15
I600
sg16
g2508
sg17
g2508
sg18
g2469
sg20
g2510
sbag1
(g8
g3
NtRp2672
(dp2673
g11
g2513
sg13
S'ITC Zapf Chancery'
p2674
sg15
I500
sg16
g2508
sg17
g2508
sg18
g2470
sg20
g2510
sbag1
(g8
g3
NtRp2675
(dp2676
g11
g2513
sg13
S'ITC Avant Garde Gothic'
p2677
sg15
I400
sg16
g2508
sg17
g2508
sg18
g2471
sg20
g2510
sbag1
(g8
g3
NtRp2678
(dp2679
g11
g2508
sg13
S'Times'
p2680
sg15
I500
sg16
g2508
sg17
g2508
sg18
g2472
sg20
g2510
sbag1
(g8
g3
NtRp2681
(dp2682
g11
g2508
sg13
S'ITC Avant Garde Gothic'
p2683
sg15
I400
sg16
g2508
sg17
g2508
sg18
g2473
sg20
g2510
sbag1
(g8
g3
NtRp2684
(dp2685
g11
g2513
sg13
S'ITC Avant Garde Gothic'
p2686
sg15
I600
sg16
g2508
sg17
g2508
sg18
g2474
sg20
g2510
sbag1
(g8
g3
NtRp2687
(dp2688
g11
g2513
sg13
S'ITC Bookman'
p2689
sg15
I600
sg16
g2508
sg17
g2508
sg18
g2475
sg20
g2510
sbag1
(g8
g3
NtRp2690
(dp2691
g11
g2508
sg13
S'Utopia'
p2692
sg15
I700
sg16
g2508
sg17
g2508
sg18
g2476
sg20
g2510
sbag1
(g8
g3
NtRp2693
(dp2694
g11
g2508
sg13
S'Courier 10 Pitch'
p2695
sg15
I700
sg16
g2508
sg17
g2508
sg18
g2477
sg20
g2510
sbag1
(g8
g3
NtRp2696
(dp2697
g11
g2513
sg13
S'Luxi Serif'
p2698
sg15
I700
sg16
g2508
sg17
g2508
sg18
g2478
sg20
g2510
sbag1
(g8
g3
NtRp2699
(dp2700
g11
g2513
sg13
S'Bitstream Charter'
p2701
sg15
I400
sg16
g2508
sg17
g2508
sg18
g2479
sg20
g2510
sbag1
(g8
g3
NtRp2702
(dp2703
g11
g2508
sg13
S'Utopia'
p2704
sg15
I400
sg16
g2508
sg17
g2508
sg18
g2480
sg20
g2510
sbag1
(g8
g3
NtRp2705
(dp2706
g11
g2513
sg13
S'Courier 10 Pitch'
p2707
sg15
I400
sg16
g2508
sg17
g2508
sg18
g2481
sg20
g2510
sbag1
(g8
g3
NtRp2708
(dp2709
g11
g2508
sg13
S'Bitstream Charter'
p2710
sg15
I400
sg16
g2508
sg17
g2508
sg18
g2482
sg20
g2510
sbag1
(g8
g3
NtRp2711
(dp2712
g11
g2513
sg13
S'Bitstream Charter'
p2713
sg15
I700
sg16
g2508
sg17
g2508
sg18
g2483
sg20
g2510
sbag1
(g8
g3
NtRp2714
(dp2715
g11
g2508
sg13
S'Luxi Sans'
p2716
sg15
I400
sg16
g2508
sg17
g2508
sg18
g2484
sg20
g2510
sbag1
(g8
g3
NtRp2717
(dp2718
g11
g2508
sg13
S'Courier'
p2719
sg15
I700
sg16
g2508
sg17
g2508
sg18
g2485
sg20
g2510
sbag1
(g8
g3
NtRp2720
(dp2721
g11
g2508
sg13
S'Courier 10 Pitch'
p2722
sg15
I400
sg16
g2508
sg17
g2508
sg18
g2486
sg20
g2510
sbag1
(g8
g3
NtRp2723
(dp2724
g11
g2513
sg13
S'Utopia'
p2725
sg15
I400
sg16
g2508
sg17
g2508
sg18
g2487
sg20
g2510
sbag1
(g8
g3
NtRp2726
(dp2727
g11
g2508
sg13
S'Luxi Serif'
p2728
sg15
I700
sg16
g2508
sg17
g2508
sg18
g2488
sg20
g2510
sbag1
(g8
g3
NtRp2729
(dp2730
g11
g2513
sg13
S'Luxi Sans'
p2731
sg15
I400
sg16
g2508
sg17
g2508
sg18
g2489
sg20
g2510
sbag1
(g8
g3
NtRp2732
(dp2733
g11
g2508
sg13
S'Luxi Sans'
p2734
sg15
I700
sg16
g2508
sg17
g2508
sg18
g2490
sg20
g2510
sbag1
(g8
g3
NtRp2735
(dp2736
g11
g2513
sg13
S'Luxi Sans'
p2737
sg15
I700
sg16
g2508
sg17
g2508
sg18
g2491
sg20
g2510
sbag1
(g8
g3
NtRp2738
(dp2739
g11
g2513
sg13
S'Courier'
p2740
sg15
I700
sg16
g2508
sg17
g2508
sg18
g2492
sg20
g2510
sbag1
(g8
g3
NtRp2741
(dp2742
g11
g2508
sg13
S'Bitstream Charter'
p2743
sg15
I700
sg16
g2508
sg17
g2508
sg18
g2493
sg20
g2510
sbag1
(g8
g3
NtRp2744
(dp2745
g11
g2508
sg13
S'Luxi Serif'
p2746
sg15
I400
sg16
g2508
sg17
g2508
sg18
g2494
sg20
g2510
sbag1
(g8
g3
NtRp2747
(dp2748
g11
g2513
sg13
S'Courier 10 Pitch'
p2749
sg15
I700
sg16
g2508
sg17
g2508
sg18
g2495
sg20
g2510
sbag1
(g8
g3
NtRp2750
(dp2751
g11
g2513
sg13
S'Luxi Mono'
p2752
sg15
I700
sg16
g2508
sg17
g2508
sg18
g2496
sg20
g2510
sbag1
(g8
g3
NtRp2753
(dp2754
g11
g2508
sg13
S'Luxi Mono'
p2755
sg15
I700
sg16
g2508
sg17
g2508
sg18
g2497
sg20
g2510
sbag1
(g8
g3
NtRp2756
(dp2757
g11
g2513
sg13
S'Luxi Mono'
p2758
sg15
I400
sg16
g2508
sg17
g2508
sg18
g2498
sg20
g2510
sbag1
(g8
g3
NtRp2759
(dp2760
g11
g2508
sg13
S'Luxi Mono'
p2761
sg15
I400
sg16
g2508
sg17
g2508
sg18
g2499
sg20
g2510
sbag1
(g8
g3
NtRp2762
(dp2763
g11
g2513
sg13
S'Luxi Serif'
p2764
sg15
I400
sg16
g2508
sg17
g2508
sg18
g2500
sg20
g2510
sbag1
(g8
g3
NtRp2765
(dp2766
g11
g2513
sg13
S'Utopia'
p2767
sg15
I700
sg16
g2508
sg17
g2508
sg18
g2501
sg20
g2510
sbag1
(g8
g3
NtRp2768
(dp2769
g11
g2508
sg13
S'Courier'
p2770
sg15
I400
sg16
g2508
sg17
g2508
sg18
g2502
sg20
g2510
sbag1
(g8
g3
NtRp2771
(dp2772
g11
g2513
sg13
S'Courier'
p2773
sg15
I400
sg16
g2508
sg17
g2508
sg18
g2503
sg20
g2510
sbasb.